
k:     file format elf32-i386


Disassembly of section .text:

00100080 <multiboot_header>:
  100080:	02 b0 ad 1b 03 00    	add    0x31bad(%eax),%dh
  100086:	00 00                	add    %al,(%eax)
  100088:	fb                   	sti    
  100089:	4f                   	dec    %edi
  10008a:	52                   	push   %edx
  10008b:	e4 55                	in     $0x55,%al

0010008c <k_main>:
  10008c:	55                   	push   %ebp
  10008d:	89 e5                	mov    %esp,%ebp
  10008f:	83 ec 08             	sub    $0x8,%esp
  100092:	e8 61 03 00 00       	call   1003f8 <prepare>
  100097:	e8 8e 02 00 00       	call   10032a <init_gdt>
  10009c:	e8 36 08 00 00       	call   1008d7 <init_idt>
  1000a1:	e8 60 09 00 00       	call   100a06 <irq_install>
  1000a6:	fb                   	sti    
  1000a7:	e8 4c 0c 00 00       	call   100cf8 <timer_install>
  1000ac:	e8 b6 0c 00 00       	call   100d67 <keyboard_install>
  1000b1:	cd 11                	int    $0x11
  1000b3:	cd 20                	int    $0x20
  1000b5:	cd 21                	int    $0x21
  1000b7:	eb f8                	jmp    1000b1 <k_main+0x25>

001000b9 <k_entry>:
  1000b9:	53                   	push   %ebx
  1000ba:	50                   	push   %eax
  1000bb:	e8 cc ff ff ff       	call   10008c <k_main>
  1000c0:	eb fe                	jmp    1000c0 <k_entry+0x7>

001000c2 <libvga_set_palette>:
  1000c2:	55                   	push   %ebp
  1000c3:	89 e5                	mov    %esp,%ebp
  1000c5:	56                   	push   %esi
  1000c6:	53                   	push   %ebx
  1000c7:	51                   	push   %ecx
  1000c8:	51                   	push   %ecx
  1000c9:	31 db                	xor    %ebx,%ebx
  1000cb:	6a 00                	push   $0x0
  1000cd:	68 c8 03 00 00       	push   $0x3c8
  1000d2:	8b 75 08             	mov    0x8(%ebp),%esi
  1000d5:	e8 9f 0b 00 00       	call   100c79 <outb>
  1000da:	83 c4 10             	add    $0x10,%esp
  1000dd:	3b 5d 0c             	cmp    0xc(%ebp),%ebx
  1000e0:	74 48                	je     10012a <libvga_set_palette+0x68>
  1000e2:	50                   	push   %eax
  1000e3:	50                   	push   %eax
  1000e4:	8b 04 9e             	mov    (%esi,%ebx,4),%eax
  1000e7:	c1 e8 12             	shr    $0x12,%eax
  1000ea:	0f b6 c0             	movzbl %al,%eax
  1000ed:	50                   	push   %eax
  1000ee:	68 c9 03 00 00       	push   $0x3c9
  1000f3:	e8 81 0b 00 00       	call   100c79 <outb>
  1000f8:	8b 04 9e             	mov    (%esi,%ebx,4),%eax
  1000fb:	5a                   	pop    %edx
  1000fc:	59                   	pop    %ecx
  1000fd:	c1 e8 0a             	shr    $0xa,%eax
  100100:	0f b6 c0             	movzbl %al,%eax
  100103:	50                   	push   %eax
  100104:	68 c9 03 00 00       	push   $0x3c9
  100109:	e8 6b 0b 00 00       	call   100c79 <outb>
  10010e:	58                   	pop    %eax
  10010f:	8b 04 9e             	mov    (%esi,%ebx,4),%eax
  100112:	43                   	inc    %ebx
  100113:	5a                   	pop    %edx
  100114:	c1 e8 02             	shr    $0x2,%eax
  100117:	0f b6 c0             	movzbl %al,%eax
  10011a:	50                   	push   %eax
  10011b:	68 c9 03 00 00       	push   $0x3c9
  100120:	e8 54 0b 00 00       	call   100c79 <outb>
  100125:	83 c4 10             	add    $0x10,%esp
  100128:	eb b3                	jmp    1000dd <libvga_set_palette+0x1b>
  10012a:	8d 65 f8             	lea    -0x8(%ebp),%esp
  10012d:	5b                   	pop    %ebx
  10012e:	5e                   	pop    %esi
  10012f:	5d                   	pop    %ebp
  100130:	c3                   	ret    

00100131 <libvga_write_regs>:
  100131:	55                   	push   %ebp
  100132:	89 e5                	mov    %esp,%ebp
  100134:	56                   	push   %esi
  100135:	53                   	push   %ebx
  100136:	89 c3                	mov    %eax,%ebx
  100138:	51                   	push   %ecx
  100139:	51                   	push   %ecx
  10013a:	0f b6 00             	movzbl (%eax),%eax
  10013d:	31 f6                	xor    %esi,%esi
  10013f:	50                   	push   %eax
  100140:	68 c2 03 00 00       	push   $0x3c2
  100145:	e8 2f 0b 00 00       	call   100c79 <outb>
  10014a:	83 c4 10             	add    $0x10,%esp
  10014d:	50                   	push   %eax
  10014e:	50                   	push   %eax
  10014f:	56                   	push   %esi
  100150:	68 c4 03 00 00       	push   $0x3c4
  100155:	e8 1f 0b 00 00       	call   100c79 <outb>
  10015a:	58                   	pop    %eax
  10015b:	0f b6 44 33 01       	movzbl 0x1(%ebx,%esi,1),%eax
  100160:	46                   	inc    %esi
  100161:	5a                   	pop    %edx
  100162:	50                   	push   %eax
  100163:	68 c5 03 00 00       	push   $0x3c5
  100168:	e8 0c 0b 00 00       	call   100c79 <outb>
  10016d:	83 c4 10             	add    $0x10,%esp
  100170:	83 fe 05             	cmp    $0x5,%esi
  100173:	75 d8                	jne    10014d <libvga_write_regs+0x1c>
  100175:	51                   	push   %ecx
  100176:	51                   	push   %ecx
  100177:	6a 03                	push   $0x3
  100179:	68 d4 03 00 00       	push   $0x3d4
  10017e:	e8 f6 0a 00 00       	call   100c79 <outb>
  100183:	c7 04 24 d5 03 00 00 	movl   $0x3d5,(%esp)
  10018a:	e8 f6 0a 00 00       	call   100c85 <inb>
  10018f:	5e                   	pop    %esi
  100190:	83 c8 80             	or     $0xffffff80,%eax
  100193:	5a                   	pop    %edx
  100194:	0f b6 c0             	movzbl %al,%eax
  100197:	50                   	push   %eax
  100198:	68 d5 03 00 00       	push   $0x3d5
  10019d:	e8 d7 0a 00 00       	call   100c79 <outb>
  1001a2:	59                   	pop    %ecx
  1001a3:	5e                   	pop    %esi
  1001a4:	6a 11                	push   $0x11
  1001a6:	68 d4 03 00 00       	push   $0x3d4
  1001ab:	31 f6                	xor    %esi,%esi
  1001ad:	e8 c7 0a 00 00       	call   100c79 <outb>
  1001b2:	c7 04 24 d5 03 00 00 	movl   $0x3d5,(%esp)
  1001b9:	e8 c7 0a 00 00       	call   100c85 <inb>
  1001be:	5a                   	pop    %edx
  1001bf:	59                   	pop    %ecx
  1001c0:	83 e0 7f             	and    $0x7f,%eax
  1001c3:	50                   	push   %eax
  1001c4:	68 d5 03 00 00       	push   $0x3d5
  1001c9:	e8 ab 0a 00 00       	call   100c79 <outb>
  1001ce:	80 4b 09 80          	orb    $0x80,0x9(%ebx)
  1001d2:	80 63 17 7f          	andb   $0x7f,0x17(%ebx)
  1001d6:	83 c4 10             	add    $0x10,%esp
  1001d9:	51                   	push   %ecx
  1001da:	51                   	push   %ecx
  1001db:	56                   	push   %esi
  1001dc:	68 d4 03 00 00       	push   $0x3d4
  1001e1:	e8 93 0a 00 00       	call   100c79 <outb>
  1001e6:	58                   	pop    %eax
  1001e7:	0f b6 44 33 06       	movzbl 0x6(%ebx,%esi,1),%eax
  1001ec:	46                   	inc    %esi
  1001ed:	5a                   	pop    %edx
  1001ee:	50                   	push   %eax
  1001ef:	68 d5 03 00 00       	push   $0x3d5
  1001f4:	e8 80 0a 00 00       	call   100c79 <outb>
  1001f9:	83 c4 10             	add    $0x10,%esp
  1001fc:	83 fe 19             	cmp    $0x19,%esi
  1001ff:	75 d8                	jne    1001d9 <libvga_write_regs+0xa8>
  100201:	31 f6                	xor    %esi,%esi
  100203:	51                   	push   %ecx
  100204:	51                   	push   %ecx
  100205:	56                   	push   %esi
  100206:	68 ce 03 00 00       	push   $0x3ce
  10020b:	e8 69 0a 00 00       	call   100c79 <outb>
  100210:	58                   	pop    %eax
  100211:	0f b6 44 33 1f       	movzbl 0x1f(%ebx,%esi,1),%eax
  100216:	46                   	inc    %esi
  100217:	5a                   	pop    %edx
  100218:	50                   	push   %eax
  100219:	68 cf 03 00 00       	push   $0x3cf
  10021e:	e8 56 0a 00 00       	call   100c79 <outb>
  100223:	83 c4 10             	add    $0x10,%esp
  100226:	83 fe 09             	cmp    $0x9,%esi
  100229:	75 d8                	jne    100203 <libvga_write_regs+0xd2>
  10022b:	83 ec 0c             	sub    $0xc,%esp
  10022e:	31 f6                	xor    %esi,%esi
  100230:	68 da 03 00 00       	push   $0x3da
  100235:	e8 4b 0a 00 00       	call   100c85 <inb>
  10023a:	83 c4 10             	add    $0x10,%esp
  10023d:	50                   	push   %eax
  10023e:	50                   	push   %eax
  10023f:	56                   	push   %esi
  100240:	68 c0 03 00 00       	push   $0x3c0
  100245:	e8 2f 0a 00 00       	call   100c79 <outb>
  10024a:	58                   	pop    %eax
  10024b:	0f b6 44 33 28       	movzbl 0x28(%ebx,%esi,1),%eax
  100250:	46                   	inc    %esi
  100251:	5a                   	pop    %edx
  100252:	50                   	push   %eax
  100253:	68 c0 03 00 00       	push   $0x3c0
  100258:	e8 1c 0a 00 00       	call   100c79 <outb>
  10025d:	83 c4 10             	add    $0x10,%esp
  100260:	83 fe 15             	cmp    $0x15,%esi
  100263:	75 d8                	jne    10023d <libvga_write_regs+0x10c>
  100265:	83 ec 0c             	sub    $0xc,%esp
  100268:	68 da 03 00 00       	push   $0x3da
  10026d:	e8 13 0a 00 00       	call   100c85 <inb>
  100272:	58                   	pop    %eax
  100273:	5a                   	pop    %edx
  100274:	6a 20                	push   $0x20
  100276:	68 c0 03 00 00       	push   $0x3c0
  10027b:	e8 f9 09 00 00       	call   100c79 <outb>
  100280:	59                   	pop    %ecx
  100281:	5b                   	pop    %ebx
  100282:	68 ff 00 00 00       	push   $0xff
  100287:	68 c6 03 00 00       	push   $0x3c6
  10028c:	e8 e8 09 00 00       	call   100c79 <outb>
  100291:	5e                   	pop    %esi
  100292:	58                   	pop    %eax
  100293:	68 00 01 00 00       	push   $0x100
  100298:	68 60 13 10 00       	push   $0x101360
  10029d:	e8 20 fe ff ff       	call   1000c2 <libvga_set_palette>
  1002a2:	83 c4 10             	add    $0x10,%esp
  1002a5:	8d 65 f8             	lea    -0x8(%ebp),%esp
  1002a8:	5b                   	pop    %ebx
  1002a9:	5e                   	pop    %esi
  1002aa:	5d                   	pop    %ebp
  1002ab:	c3                   	ret    

001002ac <libvga_get_framebuffer>:
  1002ac:	55                   	push   %ebp
  1002ad:	89 e5                	mov    %esp,%ebp
  1002af:	83 ec 10             	sub    $0x10,%esp
  1002b2:	6a 06                	push   $0x6
  1002b4:	68 ce 03 00 00       	push   $0x3ce
  1002b9:	e8 bb 09 00 00       	call   100c79 <outb>
  1002be:	c7 04 24 cf 03 00 00 	movl   $0x3cf,(%esp)
  1002c5:	e8 bb 09 00 00       	call   100c85 <inb>
  1002ca:	83 e0 0c             	and    $0xc,%eax
  1002cd:	8b 80 20 10 10 00    	mov    0x101020(%eax),%eax
  1002d3:	c9                   	leave  
  1002d4:	c3                   	ret    

001002d5 <libvga_switch_mode13h>:
  1002d5:	55                   	push   %ebp
  1002d6:	b8 a0 17 10 00       	mov    $0x1017a0,%eax
  1002db:	89 e5                	mov    %esp,%ebp
  1002dd:	83 ec 08             	sub    $0x8,%esp
  1002e0:	e8 4c fe ff ff       	call   100131 <libvga_write_regs>
  1002e5:	e8 c2 ff ff ff       	call   1002ac <libvga_get_framebuffer>
  1002ea:	31 d2                	xor    %edx,%edx
  1002ec:	8a 0c 10             	mov    (%eax,%edx,1),%cl
  1002ef:	42                   	inc    %edx
  1002f0:	88 8a 5f 18 10 00    	mov    %cl,0x10185f(%edx)
  1002f6:	81 fa 00 fa 00 00    	cmp    $0xfa00,%edx
  1002fc:	75 ee                	jne    1002ec <libvga_switch_mode13h+0x17>
  1002fe:	c9                   	leave  
  1002ff:	c3                   	ret    

00100300 <libvga_switch_mode3h>:
  100300:	55                   	push   %ebp
  100301:	89 e5                	mov    %esp,%ebp
  100303:	83 ec 08             	sub    $0x8,%esp
  100306:	e8 a1 ff ff ff       	call   1002ac <libvga_get_framebuffer>
  10030b:	31 d2                	xor    %edx,%edx
  10030d:	8a 8a 60 18 10 00    	mov    0x101860(%edx),%cl
  100313:	88 0c 10             	mov    %cl,(%eax,%edx,1)
  100316:	42                   	inc    %edx
  100317:	81 fa 00 fa 00 00    	cmp    $0xfa00,%edx
  10031d:	75 ee                	jne    10030d <libvga_switch_mode3h+0xd>
  10031f:	c9                   	leave  
  100320:	b8 60 17 10 00       	mov    $0x101760,%eax
  100325:	e9 07 fe ff ff       	jmp    100131 <libvga_write_regs>

0010032a <init_gdt>:
  10032a:	55                   	push   %ebp
  10032b:	66 c7 05 60 12 11 00 	movw   $0x17,0x111260
  100332:	17 00 
  100334:	c7 05 62 12 11 00 68 	movl   $0x111268,0x111262
  10033b:	12 11 00 
  10033e:	66 c7 05 6a 12 11 00 	movw   $0x0,0x11126a
  100345:	00 00 
  100347:	89 e5                	mov    %esp,%ebp
  100349:	c6 05 6c 12 11 00 00 	movb   $0x0,0x11126c
  100350:	c6 05 6f 12 11 00 00 	movb   $0x0,0x11126f
  100357:	66 c7 05 68 12 11 00 	movw   $0x0,0x111268
  10035e:	00 00 
  100360:	c6 05 6e 12 11 00 00 	movb   $0x0,0x11126e
  100367:	c6 05 6d 12 11 00 00 	movb   $0x0,0x11126d
  10036e:	66 c7 05 72 12 11 00 	movw   $0x0,0x111272
  100375:	00 00 
  100377:	c6 05 74 12 11 00 00 	movb   $0x0,0x111274
  10037e:	c6 05 77 12 11 00 00 	movb   $0x0,0x111277
  100385:	66 c7 05 70 12 11 00 	movw   $0xffff,0x111270
  10038c:	ff ff 
  10038e:	c6 05 76 12 11 00 cf 	movb   $0xcf,0x111276
  100395:	c6 05 75 12 11 00 9a 	movb   $0x9a,0x111275
  10039c:	66 c7 05 7a 12 11 00 	movw   $0x0,0x11127a
  1003a3:	00 00 
  1003a5:	c6 05 7c 12 11 00 00 	movb   $0x0,0x11127c
  1003ac:	c6 05 7f 12 11 00 00 	movb   $0x0,0x11127f
  1003b3:	66 c7 05 78 12 11 00 	movw   $0xffff,0x111278
  1003ba:	ff ff 
  1003bc:	c6 05 7e 12 11 00 cf 	movb   $0xcf,0x11127e
  1003c3:	c6 05 7d 12 11 00 92 	movb   $0x92,0x11127d
  1003ca:	0f 01 15 60 12 11 00 	lgdtl  0x111260
  1003d1:	0f 20 c0             	mov    %cr0,%eax
  1003d4:	0b 05 01 00 00 00    	or     0x1,%eax
  1003da:	0f 22 c0             	mov    %eax,%cr0
  1003dd:	0f 22 c0             	mov    %eax,%cr0
  1003e0:	66 b8 10 00          	mov    $0x10,%ax
  1003e4:	8e d8                	mov    %eax,%ds
  1003e6:	8e c0                	mov    %eax,%es
  1003e8:	8e e0                	mov    %eax,%fs
  1003ea:	8e e8                	mov    %eax,%gs
  1003ec:	8e d0                	mov    %eax,%ss
  1003ee:	6a 08                	push   $0x8
  1003f0:	68 f6 03 10 00       	push   $0x1003f6
  1003f5:	cb                   	lret   
  1003f6:	5d                   	pop    %ebp
  1003f7:	c3                   	ret    

001003f8 <prepare>:
  1003f8:	55                   	push   %ebp
  1003f9:	89 e5                	mov    %esp,%ebp
  1003fb:	57                   	push   %edi
  1003fc:	56                   	push   %esi
  1003fd:	53                   	push   %ebx
  1003fe:	83 ec 18             	sub    $0x18,%esp
  100401:	68 fb 03 00 00       	push   $0x3fb
  100406:	e8 7a 08 00 00       	call   100c85 <inb>
  10040b:	89 c6                	mov    %eax,%esi
  10040d:	c7 04 24 fa 03 00 00 	movl   $0x3fa,(%esp)
  100414:	81 e6 f4 00 00 00    	and    $0xf4,%esi
  10041a:	e8 66 08 00 00       	call   100c85 <inb>
  10041f:	c7 04 24 f9 03 00 00 	movl   $0x3f9,(%esp)
  100426:	88 c3                	mov    %al,%bl
  100428:	83 ce 03             	or     $0x3,%esi
  10042b:	e8 55 08 00 00       	call   100c85 <inb>
  100430:	89 c7                	mov    %eax,%edi
  100432:	83 cb c7             	or     $0xffffffc7,%ebx
  100435:	58                   	pop    %eax
  100436:	5a                   	pop    %edx
  100437:	56                   	push   %esi
  100438:	68 f8 03 00 00       	push   $0x3f8
  10043d:	0f b6 db             	movzbl %bl,%ebx
  100440:	e8 34 08 00 00       	call   100c79 <outb>
  100445:	59                   	pop    %ecx
  100446:	5e                   	pop    %esi
  100447:	6a 03                	push   $0x3
  100449:	68 f8 03 00 00       	push   $0x3f8
  10044e:	e8 26 08 00 00       	call   100c79 <outb>
  100453:	58                   	pop    %eax
  100454:	5a                   	pop    %edx
  100455:	6a 00                	push   $0x0
  100457:	68 f9 03 00 00       	push   $0x3f9
  10045c:	e8 18 08 00 00       	call   100c79 <outb>
  100461:	59                   	pop    %ecx
  100462:	5e                   	pop    %esi
  100463:	53                   	push   %ebx
  100464:	68 f8 03 00 00       	push   $0x3f8
  100469:	e8 0b 08 00 00       	call   100c79 <outb>
  10046e:	58                   	pop    %eax
  10046f:	89 f8                	mov    %edi,%eax
  100471:	5a                   	pop    %edx
  100472:	83 c8 02             	or     $0x2,%eax
  100475:	0f b6 c0             	movzbl %al,%eax
  100478:	50                   	push   %eax
  100479:	68 f8 03 00 00       	push   $0x3f8
  10047e:	e8 f6 07 00 00       	call   100c79 <outb>
  100483:	83 c4 10             	add    $0x10,%esp
  100486:	8d 65 f4             	lea    -0xc(%ebp),%esp
  100489:	5b                   	pop    %ebx
  10048a:	5e                   	pop    %esi
  10048b:	5f                   	pop    %edi
  10048c:	5d                   	pop    %ebp
  10048d:	c3                   	ret    

0010048e <write>:
  10048e:	55                   	push   %ebp
  10048f:	89 e5                	mov    %esp,%ebp
  100491:	57                   	push   %edi
  100492:	56                   	push   %esi
  100493:	53                   	push   %ebx
  100494:	83 ec 0c             	sub    $0xc,%esp
  100497:	8b 75 0c             	mov    0xc(%ebp),%esi
  10049a:	8b 5d 08             	mov    0x8(%ebp),%ebx
  10049d:	8d 3c 33             	lea    (%ebx,%esi,1),%edi
  1004a0:	39 fb                	cmp    %edi,%ebx
  1004a2:	74 17                	je     1004bb <write+0x2d>
  1004a4:	50                   	push   %eax
  1004a5:	50                   	push   %eax
  1004a6:	43                   	inc    %ebx
  1004a7:	0f b6 43 ff          	movzbl -0x1(%ebx),%eax
  1004ab:	50                   	push   %eax
  1004ac:	68 f8 03 00 00       	push   $0x3f8
  1004b1:	e8 c3 07 00 00       	call   100c79 <outb>
  1004b6:	83 c4 10             	add    $0x10,%esp
  1004b9:	eb e5                	jmp    1004a0 <write+0x12>
  1004bb:	8d 65 f4             	lea    -0xc(%ebp),%esp
  1004be:	89 f0                	mov    %esi,%eax
  1004c0:	5b                   	pop    %ebx
  1004c1:	5e                   	pop    %esi
  1004c2:	5f                   	pop    %edi
  1004c3:	5d                   	pop    %ebp
  1004c4:	c3                   	ret    
  1004c5:	66 90                	xchg   %ax,%ax
  1004c7:	66 90                	xchg   %ax,%ax
  1004c9:	66 90                	xchg   %ax,%ax
  1004cb:	66 90                	xchg   %ax,%ax
  1004cd:	66 90                	xchg   %ax,%ax
  1004cf:	90                   	nop

001004d0 <isr_common_stub>:
  1004d0:	60                   	pusha  
  1004d1:	66 8c d8             	mov    %ds,%ax
  1004d4:	50                   	push   %eax
  1004d5:	66 b8 10 00          	mov    $0x10,%ax
  1004d9:	8e d8                	mov    %eax,%ds
  1004db:	8e c0                	mov    %eax,%es
  1004dd:	8e e0                	mov    %eax,%fs
  1004df:	8e e8                	mov    %eax,%gs
  1004e1:	e8 24 04 00 00       	call   10090a <isr_handler>
  1004e6:	5b                   	pop    %ebx
  1004e7:	8e db                	mov    %ebx,%ds
  1004e9:	8e c3                	mov    %ebx,%es
  1004eb:	8e e3                	mov    %ebx,%fs
  1004ed:	8e eb                	mov    %ebx,%gs
  1004ef:	61                   	popa   
  1004f0:	83 c4 08             	add    $0x8,%esp
  1004f3:	fb                   	sti    
  1004f4:	cf                   	iret   

001004f5 <_isr0>:
  1004f5:	fa                   	cli    
  1004f6:	6a 00                	push   $0x0
  1004f8:	6a 00                	push   $0x0
  1004fa:	eb d4                	jmp    1004d0 <isr_common_stub>

001004fc <_isr1>:
  1004fc:	fa                   	cli    
  1004fd:	6a 00                	push   $0x0
  1004ff:	6a 01                	push   $0x1
  100501:	eb cd                	jmp    1004d0 <isr_common_stub>

00100503 <_isr2>:
  100503:	fa                   	cli    
  100504:	6a 00                	push   $0x0
  100506:	6a 02                	push   $0x2
  100508:	eb c6                	jmp    1004d0 <isr_common_stub>

0010050a <_isr3>:
  10050a:	fa                   	cli    
  10050b:	6a 00                	push   $0x0
  10050d:	6a 03                	push   $0x3
  10050f:	eb bf                	jmp    1004d0 <isr_common_stub>

00100511 <_isr4>:
  100511:	fa                   	cli    
  100512:	6a 00                	push   $0x0
  100514:	6a 04                	push   $0x4
  100516:	eb b8                	jmp    1004d0 <isr_common_stub>

00100518 <_isr5>:
  100518:	fa                   	cli    
  100519:	6a 00                	push   $0x0
  10051b:	6a 05                	push   $0x5
  10051d:	eb b1                	jmp    1004d0 <isr_common_stub>

0010051f <_isr6>:
  10051f:	fa                   	cli    
  100520:	6a 00                	push   $0x0
  100522:	6a 06                	push   $0x6
  100524:	eb aa                	jmp    1004d0 <isr_common_stub>

00100526 <_isr7>:
  100526:	fa                   	cli    
  100527:	6a 00                	push   $0x0
  100529:	6a 07                	push   $0x7
  10052b:	eb a3                	jmp    1004d0 <isr_common_stub>

0010052d <_isr8>:
  10052d:	fa                   	cli    
  10052e:	6a 08                	push   $0x8
  100530:	eb 9e                	jmp    1004d0 <isr_common_stub>

00100532 <_isr9>:
  100532:	fa                   	cli    
  100533:	6a 00                	push   $0x0
  100535:	6a 09                	push   $0x9
  100537:	eb 97                	jmp    1004d0 <isr_common_stub>

00100539 <_isr10>:
  100539:	fa                   	cli    
  10053a:	6a 0a                	push   $0xa
  10053c:	eb 92                	jmp    1004d0 <isr_common_stub>

0010053e <_isr11>:
  10053e:	fa                   	cli    
  10053f:	6a 0b                	push   $0xb
  100541:	eb 8d                	jmp    1004d0 <isr_common_stub>

00100543 <_isr12>:
  100543:	fa                   	cli    
  100544:	6a 0c                	push   $0xc
  100546:	eb 88                	jmp    1004d0 <isr_common_stub>

00100548 <_isr13>:
  100548:	fa                   	cli    
  100549:	6a 0d                	push   $0xd
  10054b:	eb 83                	jmp    1004d0 <isr_common_stub>

0010054d <_isr14>:
  10054d:	fa                   	cli    
  10054e:	6a 0e                	push   $0xe
  100550:	e9 7b ff ff ff       	jmp    1004d0 <isr_common_stub>

00100555 <_isr15>:
  100555:	fa                   	cli    
  100556:	6a 00                	push   $0x0
  100558:	6a 0f                	push   $0xf
  10055a:	e9 71 ff ff ff       	jmp    1004d0 <isr_common_stub>

0010055f <_isr16>:
  10055f:	fa                   	cli    
  100560:	6a 00                	push   $0x0
  100562:	6a 10                	push   $0x10
  100564:	e9 67 ff ff ff       	jmp    1004d0 <isr_common_stub>

00100569 <_isr17>:
  100569:	fa                   	cli    
  10056a:	6a 00                	push   $0x0
  10056c:	6a 11                	push   $0x11
  10056e:	e9 5d ff ff ff       	jmp    1004d0 <isr_common_stub>

00100573 <_isr18>:
  100573:	fa                   	cli    
  100574:	6a 00                	push   $0x0
  100576:	6a 12                	push   $0x12
  100578:	e9 53 ff ff ff       	jmp    1004d0 <isr_common_stub>

0010057d <_isr19>:
  10057d:	fa                   	cli    
  10057e:	6a 00                	push   $0x0
  100580:	6a 13                	push   $0x13
  100582:	e9 49 ff ff ff       	jmp    1004d0 <isr_common_stub>

00100587 <_isr20>:
  100587:	fa                   	cli    
  100588:	6a 00                	push   $0x0
  10058a:	6a 14                	push   $0x14
  10058c:	e9 3f ff ff ff       	jmp    1004d0 <isr_common_stub>

00100591 <_isr21>:
  100591:	fa                   	cli    
  100592:	6a 00                	push   $0x0
  100594:	6a 15                	push   $0x15
  100596:	e9 35 ff ff ff       	jmp    1004d0 <isr_common_stub>

0010059b <_isr22>:
  10059b:	fa                   	cli    
  10059c:	6a 00                	push   $0x0
  10059e:	6a 16                	push   $0x16
  1005a0:	e9 2b ff ff ff       	jmp    1004d0 <isr_common_stub>

001005a5 <_isr23>:
  1005a5:	fa                   	cli    
  1005a6:	6a 00                	push   $0x0
  1005a8:	6a 17                	push   $0x17
  1005aa:	e9 21 ff ff ff       	jmp    1004d0 <isr_common_stub>

001005af <_isr24>:
  1005af:	fa                   	cli    
  1005b0:	6a 00                	push   $0x0
  1005b2:	6a 18                	push   $0x18
  1005b4:	e9 17 ff ff ff       	jmp    1004d0 <isr_common_stub>

001005b9 <_isr25>:
  1005b9:	fa                   	cli    
  1005ba:	6a 00                	push   $0x0
  1005bc:	6a 19                	push   $0x19
  1005be:	e9 0d ff ff ff       	jmp    1004d0 <isr_common_stub>

001005c3 <_isr26>:
  1005c3:	fa                   	cli    
  1005c4:	6a 00                	push   $0x0
  1005c6:	6a 1a                	push   $0x1a
  1005c8:	e9 03 ff ff ff       	jmp    1004d0 <isr_common_stub>

001005cd <_isr27>:
  1005cd:	fa                   	cli    
  1005ce:	6a 00                	push   $0x0
  1005d0:	6a 1b                	push   $0x1b
  1005d2:	e9 f9 fe ff ff       	jmp    1004d0 <isr_common_stub>

001005d7 <_isr28>:
  1005d7:	fa                   	cli    
  1005d8:	6a 00                	push   $0x0
  1005da:	6a 1c                	push   $0x1c
  1005dc:	e9 ef fe ff ff       	jmp    1004d0 <isr_common_stub>

001005e1 <_isr29>:
  1005e1:	fa                   	cli    
  1005e2:	6a 00                	push   $0x0
  1005e4:	6a 1d                	push   $0x1d
  1005e6:	e9 e5 fe ff ff       	jmp    1004d0 <isr_common_stub>

001005eb <_isr30>:
  1005eb:	fa                   	cli    
  1005ec:	6a 00                	push   $0x0
  1005ee:	6a 1e                	push   $0x1e
  1005f0:	e9 db fe ff ff       	jmp    1004d0 <isr_common_stub>

001005f5 <_isr31>:
  1005f5:	fa                   	cli    
  1005f6:	6a 00                	push   $0x0
  1005f8:	6a 1f                	push   $0x1f
  1005fa:	e9 d1 fe ff ff       	jmp    1004d0 <isr_common_stub>

001005ff <idt_set_gate>:
  1005ff:	55                   	push   %ebp
  100600:	89 e5                	mov    %esp,%ebp
  100602:	0f b6 45 08          	movzbl 0x8(%ebp),%eax
  100606:	8b 55 0c             	mov    0xc(%ebp),%edx
  100609:	66 89 14 c5 a0 12 11 	mov    %dx,0x1112a0(,%eax,8)
  100610:	00 
  100611:	c1 ea 10             	shr    $0x10,%edx
  100614:	c6 04 c5 a4 12 11 00 	movb   $0x0,0x1112a4(,%eax,8)
  10061b:	00 
  10061c:	66 89 14 c5 a6 12 11 	mov    %dx,0x1112a6(,%eax,8)
  100623:	00 
  100624:	8b 55 10             	mov    0x10(%ebp),%edx
  100627:	66 89 14 c5 a2 12 11 	mov    %dx,0x1112a2(,%eax,8)
  10062e:	00 
  10062f:	8b 55 14             	mov    0x14(%ebp),%edx
  100632:	5d                   	pop    %ebp
  100633:	88 14 c5 a5 12 11 00 	mov    %dl,0x1112a5(,%eax,8)
  10063a:	c3                   	ret    

0010063b <idt_load>:
  10063b:	55                   	push   %ebp
  10063c:	89 e5                	mov    %esp,%ebp
  10063e:	68 8e 00 00 00       	push   $0x8e
  100643:	6a 08                	push   $0x8
  100645:	68 f5 04 10 00       	push   $0x1004f5
  10064a:	6a 00                	push   $0x0
  10064c:	e8 ae ff ff ff       	call   1005ff <idt_set_gate>
  100651:	68 8e 00 00 00       	push   $0x8e
  100656:	6a 08                	push   $0x8
  100658:	68 fc 04 10 00       	push   $0x1004fc
  10065d:	6a 01                	push   $0x1
  10065f:	e8 9b ff ff ff       	call   1005ff <idt_set_gate>
  100664:	83 c4 20             	add    $0x20,%esp
  100667:	68 8e 00 00 00       	push   $0x8e
  10066c:	6a 08                	push   $0x8
  10066e:	68 03 05 10 00       	push   $0x100503
  100673:	6a 02                	push   $0x2
  100675:	e8 85 ff ff ff       	call   1005ff <idt_set_gate>
  10067a:	68 8e 00 00 00       	push   $0x8e
  10067f:	6a 08                	push   $0x8
  100681:	68 0a 05 10 00       	push   $0x10050a
  100686:	6a 03                	push   $0x3
  100688:	e8 72 ff ff ff       	call   1005ff <idt_set_gate>
  10068d:	83 c4 20             	add    $0x20,%esp
  100690:	68 8e 00 00 00       	push   $0x8e
  100695:	6a 08                	push   $0x8
  100697:	68 11 05 10 00       	push   $0x100511
  10069c:	6a 04                	push   $0x4
  10069e:	e8 5c ff ff ff       	call   1005ff <idt_set_gate>
  1006a3:	68 8e 00 00 00       	push   $0x8e
  1006a8:	6a 08                	push   $0x8
  1006aa:	68 18 05 10 00       	push   $0x100518
  1006af:	6a 05                	push   $0x5
  1006b1:	e8 49 ff ff ff       	call   1005ff <idt_set_gate>
  1006b6:	83 c4 20             	add    $0x20,%esp
  1006b9:	68 8e 00 00 00       	push   $0x8e
  1006be:	6a 08                	push   $0x8
  1006c0:	68 1f 05 10 00       	push   $0x10051f
  1006c5:	6a 06                	push   $0x6
  1006c7:	e8 33 ff ff ff       	call   1005ff <idt_set_gate>
  1006cc:	68 8e 00 00 00       	push   $0x8e
  1006d1:	6a 08                	push   $0x8
  1006d3:	68 26 05 10 00       	push   $0x100526
  1006d8:	6a 07                	push   $0x7
  1006da:	e8 20 ff ff ff       	call   1005ff <idt_set_gate>
  1006df:	83 c4 20             	add    $0x20,%esp
  1006e2:	68 8e 00 00 00       	push   $0x8e
  1006e7:	6a 08                	push   $0x8
  1006e9:	68 2d 05 10 00       	push   $0x10052d
  1006ee:	6a 08                	push   $0x8
  1006f0:	e8 0a ff ff ff       	call   1005ff <idt_set_gate>
  1006f5:	68 8e 00 00 00       	push   $0x8e
  1006fa:	6a 08                	push   $0x8
  1006fc:	68 32 05 10 00       	push   $0x100532
  100701:	6a 09                	push   $0x9
  100703:	e8 f7 fe ff ff       	call   1005ff <idt_set_gate>
  100708:	83 c4 20             	add    $0x20,%esp
  10070b:	68 8e 00 00 00       	push   $0x8e
  100710:	6a 08                	push   $0x8
  100712:	68 39 05 10 00       	push   $0x100539
  100717:	6a 0a                	push   $0xa
  100719:	e8 e1 fe ff ff       	call   1005ff <idt_set_gate>
  10071e:	68 8e 00 00 00       	push   $0x8e
  100723:	6a 08                	push   $0x8
  100725:	68 3e 05 10 00       	push   $0x10053e
  10072a:	6a 0b                	push   $0xb
  10072c:	e8 ce fe ff ff       	call   1005ff <idt_set_gate>
  100731:	83 c4 20             	add    $0x20,%esp
  100734:	68 8e 00 00 00       	push   $0x8e
  100739:	6a 08                	push   $0x8
  10073b:	68 43 05 10 00       	push   $0x100543
  100740:	6a 0c                	push   $0xc
  100742:	e8 b8 fe ff ff       	call   1005ff <idt_set_gate>
  100747:	68 8e 00 00 00       	push   $0x8e
  10074c:	6a 08                	push   $0x8
  10074e:	68 48 05 10 00       	push   $0x100548
  100753:	6a 0d                	push   $0xd
  100755:	e8 a5 fe ff ff       	call   1005ff <idt_set_gate>
  10075a:	83 c4 20             	add    $0x20,%esp
  10075d:	68 8e 00 00 00       	push   $0x8e
  100762:	6a 08                	push   $0x8
  100764:	68 4d 05 10 00       	push   $0x10054d
  100769:	6a 0e                	push   $0xe
  10076b:	e8 8f fe ff ff       	call   1005ff <idt_set_gate>
  100770:	68 8e 00 00 00       	push   $0x8e
  100775:	6a 08                	push   $0x8
  100777:	68 55 05 10 00       	push   $0x100555
  10077c:	6a 0f                	push   $0xf
  10077e:	e8 7c fe ff ff       	call   1005ff <idt_set_gate>
  100783:	83 c4 20             	add    $0x20,%esp
  100786:	68 8e 00 00 00       	push   $0x8e
  10078b:	6a 08                	push   $0x8
  10078d:	68 5f 05 10 00       	push   $0x10055f
  100792:	6a 10                	push   $0x10
  100794:	e8 66 fe ff ff       	call   1005ff <idt_set_gate>
  100799:	68 8e 00 00 00       	push   $0x8e
  10079e:	6a 08                	push   $0x8
  1007a0:	68 69 05 10 00       	push   $0x100569
  1007a5:	6a 11                	push   $0x11
  1007a7:	e8 53 fe ff ff       	call   1005ff <idt_set_gate>
  1007ac:	83 c4 20             	add    $0x20,%esp
  1007af:	68 8e 00 00 00       	push   $0x8e
  1007b4:	6a 08                	push   $0x8
  1007b6:	68 73 05 10 00       	push   $0x100573
  1007bb:	6a 12                	push   $0x12
  1007bd:	e8 3d fe ff ff       	call   1005ff <idt_set_gate>
  1007c2:	68 8e 00 00 00       	push   $0x8e
  1007c7:	6a 08                	push   $0x8
  1007c9:	68 7d 05 10 00       	push   $0x10057d
  1007ce:	6a 13                	push   $0x13
  1007d0:	e8 2a fe ff ff       	call   1005ff <idt_set_gate>
  1007d5:	83 c4 20             	add    $0x20,%esp
  1007d8:	68 8e 00 00 00       	push   $0x8e
  1007dd:	6a 08                	push   $0x8
  1007df:	68 87 05 10 00       	push   $0x100587
  1007e4:	6a 14                	push   $0x14
  1007e6:	e8 14 fe ff ff       	call   1005ff <idt_set_gate>
  1007eb:	68 8e 00 00 00       	push   $0x8e
  1007f0:	6a 08                	push   $0x8
  1007f2:	68 91 05 10 00       	push   $0x100591
  1007f7:	6a 15                	push   $0x15
  1007f9:	e8 01 fe ff ff       	call   1005ff <idt_set_gate>
  1007fe:	83 c4 20             	add    $0x20,%esp
  100801:	68 8e 00 00 00       	push   $0x8e
  100806:	6a 08                	push   $0x8
  100808:	68 9b 05 10 00       	push   $0x10059b
  10080d:	6a 16                	push   $0x16
  10080f:	e8 eb fd ff ff       	call   1005ff <idt_set_gate>
  100814:	68 8e 00 00 00       	push   $0x8e
  100819:	6a 08                	push   $0x8
  10081b:	68 a5 05 10 00       	push   $0x1005a5
  100820:	6a 17                	push   $0x17
  100822:	e8 d8 fd ff ff       	call   1005ff <idt_set_gate>
  100827:	83 c4 20             	add    $0x20,%esp
  10082a:	68 8e 00 00 00       	push   $0x8e
  10082f:	6a 08                	push   $0x8
  100831:	68 af 05 10 00       	push   $0x1005af
  100836:	6a 18                	push   $0x18
  100838:	e8 c2 fd ff ff       	call   1005ff <idt_set_gate>
  10083d:	68 8e 00 00 00       	push   $0x8e
  100842:	6a 08                	push   $0x8
  100844:	68 b9 05 10 00       	push   $0x1005b9
  100849:	6a 19                	push   $0x19
  10084b:	e8 af fd ff ff       	call   1005ff <idt_set_gate>
  100850:	83 c4 20             	add    $0x20,%esp
  100853:	68 8e 00 00 00       	push   $0x8e
  100858:	6a 08                	push   $0x8
  10085a:	68 c3 05 10 00       	push   $0x1005c3
  10085f:	6a 1a                	push   $0x1a
  100861:	e8 99 fd ff ff       	call   1005ff <idt_set_gate>
  100866:	68 8e 00 00 00       	push   $0x8e
  10086b:	6a 08                	push   $0x8
  10086d:	68 cd 05 10 00       	push   $0x1005cd
  100872:	6a 1b                	push   $0x1b
  100874:	e8 86 fd ff ff       	call   1005ff <idt_set_gate>
  100879:	83 c4 20             	add    $0x20,%esp
  10087c:	68 8e 00 00 00       	push   $0x8e
  100881:	6a 08                	push   $0x8
  100883:	68 d7 05 10 00       	push   $0x1005d7
  100888:	6a 1c                	push   $0x1c
  10088a:	e8 70 fd ff ff       	call   1005ff <idt_set_gate>
  10088f:	68 8e 00 00 00       	push   $0x8e
  100894:	6a 08                	push   $0x8
  100896:	68 e1 05 10 00       	push   $0x1005e1
  10089b:	6a 1d                	push   $0x1d
  10089d:	e8 5d fd ff ff       	call   1005ff <idt_set_gate>
  1008a2:	83 c4 20             	add    $0x20,%esp
  1008a5:	68 8e 00 00 00       	push   $0x8e
  1008aa:	6a 08                	push   $0x8
  1008ac:	68 eb 05 10 00       	push   $0x1005eb
  1008b1:	6a 1e                	push   $0x1e
  1008b3:	e8 47 fd ff ff       	call   1005ff <idt_set_gate>
  1008b8:	68 8e 00 00 00       	push   $0x8e
  1008bd:	6a 08                	push   $0x8
  1008bf:	68 f5 05 10 00       	push   $0x1005f5
  1008c4:	6a 1f                	push   $0x1f
  1008c6:	e8 34 fd ff ff       	call   1005ff <idt_set_gate>
  1008cb:	0f 01 1d 80 12 11 00 	lidtl  0x111280
  1008d2:	83 c4 20             	add    $0x20,%esp
  1008d5:	c9                   	leave  
  1008d6:	c3                   	ret    

001008d7 <init_idt>:
  1008d7:	55                   	push   %ebp
  1008d8:	89 e5                	mov    %esp,%ebp
  1008da:	83 ec 0c             	sub    $0xc,%esp
  1008dd:	66 c7 05 80 12 11 00 	movw   $0x7ff,0x111280
  1008e4:	ff 07 
  1008e6:	68 00 08 00 00       	push   $0x800
  1008eb:	6a 00                	push   $0x0
  1008ed:	68 a0 12 11 00       	push   $0x1112a0
  1008f2:	c7 05 82 12 11 00 a0 	movl   $0x1112a0,0x111282
  1008f9:	12 11 00 
  1008fc:	e8 ea 06 00 00       	call   100feb <memset>
  100901:	83 c4 10             	add    $0x10,%esp
  100904:	c9                   	leave  
  100905:	e9 31 fd ff ff       	jmp    10063b <idt_load>

0010090a <isr_handler>:
  10090a:	55                   	push   %ebp
  10090b:	89 e5                	mov    %esp,%ebp
  10090d:	53                   	push   %ebx
  10090e:	83 ec 10             	sub    $0x10,%esp
  100911:	8b 5d 08             	mov    0x8(%ebp),%ebx
  100914:	68 c0 10 10 00       	push   $0x1010c0
  100919:	e8 bf 05 00 00       	call   100edd <monitor_write>
  10091e:	8b 43 24             	mov    0x24(%ebx),%eax
  100921:	83 c4 10             	add    $0x10,%esp
  100924:	83 f8 1f             	cmp    $0x1f,%eax
  100927:	77 22                	ja     10094b <isr_handler+0x41>
  100929:	83 ec 0c             	sub    $0xc,%esp
  10092c:	ff 34 85 e0 17 10 00 	pushl  0x1017e0(,%eax,4)
  100933:	e8 a5 05 00 00       	call   100edd <monitor_write>
  100938:	83 c4 10             	add    $0x10,%esp
  10093b:	c7 45 08 0a 00 00 00 	movl   $0xa,0x8(%ebp)
  100942:	8b 5d fc             	mov    -0x4(%ebp),%ebx
  100945:	c9                   	leave  
  100946:	e9 92 04 00 00       	jmp    100ddd <monitor_put>
  10094b:	c7 45 08 dc 10 10 00 	movl   $0x1010dc,0x8(%ebp)
  100952:	8b 5d fc             	mov    -0x4(%ebp),%ebx
  100955:	c9                   	leave  
  100956:	e9 82 05 00 00       	jmp    100edd <monitor_write>

0010095b <irq_install_handler>:
  10095b:	55                   	push   %ebp
  10095c:	89 e5                	mov    %esp,%ebp
  10095e:	8b 55 0c             	mov    0xc(%ebp),%edx
  100961:	8b 45 08             	mov    0x8(%ebp),%eax
  100964:	5d                   	pop    %ebp
  100965:	89 14 85 a0 1a 11 00 	mov    %edx,0x111aa0(,%eax,4)
  10096c:	c3                   	ret    

0010096d <irq_uninstall_handler>:
  10096d:	55                   	push   %ebp
  10096e:	89 e5                	mov    %esp,%ebp
  100970:	8b 45 08             	mov    0x8(%ebp),%eax
  100973:	5d                   	pop    %ebp
  100974:	c7 04 85 a0 1a 11 00 	movl   $0x0,0x111aa0(,%eax,4)
  10097b:	00 00 00 00 
  10097f:	c3                   	ret    

00100980 <irq_remap>:
  100980:	55                   	push   %ebp
  100981:	89 e5                	mov    %esp,%ebp
  100983:	83 ec 10             	sub    $0x10,%esp
  100986:	6a 11                	push   $0x11
  100988:	6a 20                	push   $0x20
  10098a:	e8 ea 02 00 00       	call   100c79 <outb>
  10098f:	58                   	pop    %eax
  100990:	5a                   	pop    %edx
  100991:	6a 11                	push   $0x11
  100993:	68 a0 00 00 00       	push   $0xa0
  100998:	e8 dc 02 00 00       	call   100c79 <outb>
  10099d:	59                   	pop    %ecx
  10099e:	58                   	pop    %eax
  10099f:	6a 20                	push   $0x20
  1009a1:	6a 21                	push   $0x21
  1009a3:	e8 d1 02 00 00       	call   100c79 <outb>
  1009a8:	58                   	pop    %eax
  1009a9:	5a                   	pop    %edx
  1009aa:	6a 28                	push   $0x28
  1009ac:	68 a1 00 00 00       	push   $0xa1
  1009b1:	e8 c3 02 00 00       	call   100c79 <outb>
  1009b6:	59                   	pop    %ecx
  1009b7:	58                   	pop    %eax
  1009b8:	6a 04                	push   $0x4
  1009ba:	6a 21                	push   $0x21
  1009bc:	e8 b8 02 00 00       	call   100c79 <outb>
  1009c1:	58                   	pop    %eax
  1009c2:	5a                   	pop    %edx
  1009c3:	6a 02                	push   $0x2
  1009c5:	68 a1 00 00 00       	push   $0xa1
  1009ca:	e8 aa 02 00 00       	call   100c79 <outb>
  1009cf:	59                   	pop    %ecx
  1009d0:	58                   	pop    %eax
  1009d1:	6a 01                	push   $0x1
  1009d3:	6a 21                	push   $0x21
  1009d5:	e8 9f 02 00 00       	call   100c79 <outb>
  1009da:	58                   	pop    %eax
  1009db:	5a                   	pop    %edx
  1009dc:	6a 01                	push   $0x1
  1009de:	68 a1 00 00 00       	push   $0xa1
  1009e3:	e8 91 02 00 00       	call   100c79 <outb>
  1009e8:	59                   	pop    %ecx
  1009e9:	58                   	pop    %eax
  1009ea:	6a 00                	push   $0x0
  1009ec:	6a 21                	push   $0x21
  1009ee:	e8 86 02 00 00       	call   100c79 <outb>
  1009f3:	58                   	pop    %eax
  1009f4:	5a                   	pop    %edx
  1009f5:	6a 00                	push   $0x0
  1009f7:	68 a1 00 00 00       	push   $0xa1
  1009fc:	e8 78 02 00 00       	call   100c79 <outb>
  100a01:	83 c4 10             	add    $0x10,%esp
  100a04:	c9                   	leave  
  100a05:	c3                   	ret    

00100a06 <irq_install>:
  100a06:	55                   	push   %ebp
  100a07:	89 e5                	mov    %esp,%ebp
  100a09:	83 ec 08             	sub    $0x8,%esp
  100a0c:	e8 6f ff ff ff       	call   100980 <irq_remap>
  100a11:	68 8e 00 00 00       	push   $0x8e
  100a16:	6a 08                	push   $0x8
  100a18:	68 e0 0b 10 00       	push   $0x100be0
  100a1d:	6a 20                	push   $0x20
  100a1f:	e8 db fb ff ff       	call   1005ff <idt_set_gate>
  100a24:	68 8e 00 00 00       	push   $0x8e
  100a29:	6a 08                	push   $0x8
  100a2b:	68 e7 0b 10 00       	push   $0x100be7
  100a30:	6a 21                	push   $0x21
  100a32:	e8 c8 fb ff ff       	call   1005ff <idt_set_gate>
  100a37:	83 c4 20             	add    $0x20,%esp
  100a3a:	68 8e 00 00 00       	push   $0x8e
  100a3f:	6a 08                	push   $0x8
  100a41:	68 fc 0b 10 00       	push   $0x100bfc
  100a46:	6a 22                	push   $0x22
  100a48:	e8 b2 fb ff ff       	call   1005ff <idt_set_gate>
  100a4d:	68 8e 00 00 00       	push   $0x8e
  100a52:	6a 08                	push   $0x8
  100a54:	68 03 0c 10 00       	push   $0x100c03
  100a59:	6a 23                	push   $0x23
  100a5b:	e8 9f fb ff ff       	call   1005ff <idt_set_gate>
  100a60:	83 c4 20             	add    $0x20,%esp
  100a63:	68 8e 00 00 00       	push   $0x8e
  100a68:	6a 08                	push   $0x8
  100a6a:	68 0a 0c 10 00       	push   $0x100c0a
  100a6f:	6a 24                	push   $0x24
  100a71:	e8 89 fb ff ff       	call   1005ff <idt_set_gate>
  100a76:	68 8e 00 00 00       	push   $0x8e
  100a7b:	6a 08                	push   $0x8
  100a7d:	68 11 0c 10 00       	push   $0x100c11
  100a82:	6a 25                	push   $0x25
  100a84:	e8 76 fb ff ff       	call   1005ff <idt_set_gate>
  100a89:	83 c4 20             	add    $0x20,%esp
  100a8c:	68 8e 00 00 00       	push   $0x8e
  100a91:	6a 08                	push   $0x8
  100a93:	68 18 0c 10 00       	push   $0x100c18
  100a98:	6a 26                	push   $0x26
  100a9a:	e8 60 fb ff ff       	call   1005ff <idt_set_gate>
  100a9f:	68 8e 00 00 00       	push   $0x8e
  100aa4:	6a 08                	push   $0x8
  100aa6:	68 1f 0c 10 00       	push   $0x100c1f
  100aab:	6a 27                	push   $0x27
  100aad:	e8 4d fb ff ff       	call   1005ff <idt_set_gate>
  100ab2:	83 c4 20             	add    $0x20,%esp
  100ab5:	68 8e 00 00 00       	push   $0x8e
  100aba:	6a 08                	push   $0x8
  100abc:	68 26 0c 10 00       	push   $0x100c26
  100ac1:	6a 28                	push   $0x28
  100ac3:	e8 37 fb ff ff       	call   1005ff <idt_set_gate>
  100ac8:	68 8e 00 00 00       	push   $0x8e
  100acd:	6a 08                	push   $0x8
  100acf:	68 2d 0c 10 00       	push   $0x100c2d
  100ad4:	6a 29                	push   $0x29
  100ad6:	e8 24 fb ff ff       	call   1005ff <idt_set_gate>
  100adb:	83 c4 20             	add    $0x20,%esp
  100ade:	68 8e 00 00 00       	push   $0x8e
  100ae3:	6a 08                	push   $0x8
  100ae5:	68 34 0c 10 00       	push   $0x100c34
  100aea:	6a 2a                	push   $0x2a
  100aec:	e8 0e fb ff ff       	call   1005ff <idt_set_gate>
  100af1:	68 8e 00 00 00       	push   $0x8e
  100af6:	6a 08                	push   $0x8
  100af8:	68 3b 0c 10 00       	push   $0x100c3b
  100afd:	6a 2b                	push   $0x2b
  100aff:	e8 fb fa ff ff       	call   1005ff <idt_set_gate>
  100b04:	83 c4 20             	add    $0x20,%esp
  100b07:	68 8e 00 00 00       	push   $0x8e
  100b0c:	6a 08                	push   $0x8
  100b0e:	68 42 0c 10 00       	push   $0x100c42
  100b13:	6a 2c                	push   $0x2c
  100b15:	e8 e5 fa ff ff       	call   1005ff <idt_set_gate>
  100b1a:	68 8e 00 00 00       	push   $0x8e
  100b1f:	6a 08                	push   $0x8
  100b21:	68 49 0c 10 00       	push   $0x100c49
  100b26:	6a 2d                	push   $0x2d
  100b28:	e8 d2 fa ff ff       	call   1005ff <idt_set_gate>
  100b2d:	83 c4 20             	add    $0x20,%esp
  100b30:	68 8e 00 00 00       	push   $0x8e
  100b35:	6a 08                	push   $0x8
  100b37:	68 42 0c 10 00       	push   $0x100c42
  100b3c:	6a 2e                	push   $0x2e
  100b3e:	e8 bc fa ff ff       	call   1005ff <idt_set_gate>
  100b43:	68 8e 00 00 00       	push   $0x8e
  100b48:	6a 08                	push   $0x8
  100b4a:	68 49 0c 10 00       	push   $0x100c49
  100b4f:	6a 2f                	push   $0x2f
  100b51:	e8 a9 fa ff ff       	call   1005ff <idt_set_gate>
  100b56:	83 c4 20             	add    $0x20,%esp
  100b59:	c9                   	leave  
  100b5a:	c3                   	ret    

00100b5b <_irq_handler>:
  100b5b:	55                   	push   %ebp
  100b5c:	89 e5                	mov    %esp,%ebp
  100b5e:	56                   	push   %esi
  100b5f:	53                   	push   %ebx
  100b60:	8b 5d 08             	mov    0x8(%ebp),%ebx
  100b63:	8b 43 24             	mov    0x24(%ebx),%eax
  100b66:	8b 34 85 20 1a 11 00 	mov    0x111a20(,%eax,4),%esi
  100b6d:	85 f6                	test   %esi,%esi
  100b6f:	74 11                	je     100b82 <_irq_handler+0x27>
  100b71:	83 ec 0c             	sub    $0xc,%esp
  100b74:	68 ea 12 10 00       	push   $0x1012ea
  100b79:	e8 5f 03 00 00       	call   100edd <monitor_write>
  100b7e:	ff d6                	call   *%esi
  100b80:	eb 0d                	jmp    100b8f <_irq_handler+0x34>
  100b82:	83 ec 0c             	sub    $0xc,%esp
  100b85:	68 fc 12 10 00       	push   $0x1012fc
  100b8a:	e8 4e 03 00 00       	call   100edd <monitor_write>
  100b8f:	0f be 43 28          	movsbl 0x28(%ebx),%eax
  100b93:	83 c4 10             	add    $0x10,%esp
  100b96:	83 ec 0c             	sub    $0xc,%esp
  100b99:	50                   	push   %eax
  100b9a:	e8 3e 02 00 00       	call   100ddd <monitor_put>
  100b9f:	83 c4 10             	add    $0x10,%esp
  100ba2:	83 7b 28 1f          	cmpl   $0x1f,0x28(%ebx)
  100ba6:	76 1d                	jbe    100bc5 <_irq_handler+0x6a>
  100ba8:	52                   	push   %edx
  100ba9:	52                   	push   %edx
  100baa:	6a 20                	push   $0x20
  100bac:	68 a0 00 00 00       	push   $0xa0
  100bb1:	e8 c3 00 00 00       	call   100c79 <outb>
  100bb6:	c7 04 24 0a 13 10 00 	movl   $0x10130a,(%esp)
  100bbd:	e8 1b 03 00 00       	call   100edd <monitor_write>
  100bc2:	83 c4 10             	add    $0x10,%esp
  100bc5:	50                   	push   %eax
  100bc6:	50                   	push   %eax
  100bc7:	6a 20                	push   $0x20
  100bc9:	6a 20                	push   $0x20
  100bcb:	e8 a9 00 00 00       	call   100c79 <outb>
  100bd0:	83 c4 10             	add    $0x10,%esp
  100bd3:	8d 65 f8             	lea    -0x8(%ebp),%esp
  100bd6:	5b                   	pop    %ebx
  100bd7:	5e                   	pop    %esi
  100bd8:	5d                   	pop    %ebp
  100bd9:	c3                   	ret    
  100bda:	66 90                	xchg   %ax,%ax
  100bdc:	66 90                	xchg   %ax,%ax
  100bde:	66 90                	xchg   %ax,%ax

00100be0 <_irq0>:
  100be0:	fa                   	cli    
  100be1:	6a 00                	push   $0x0
  100be3:	6a 20                	push   $0x20
  100be5:	eb 69                	jmp    100c50 <irq_common_stub>

00100be7 <_irq1>:
  100be7:	fa                   	cli    
  100be8:	6a 00                	push   $0x0
  100bea:	6a 21                	push   $0x21
  100bec:	eb 62                	jmp    100c50 <irq_common_stub>

00100bee <_irq2>:
  100bee:	fa                   	cli    
  100bef:	6a 00                	push   $0x0
  100bf1:	6a 22                	push   $0x22
  100bf3:	eb 5b                	jmp    100c50 <irq_common_stub>

00100bf5 <_irq3>:
  100bf5:	fa                   	cli    
  100bf6:	6a 00                	push   $0x0
  100bf8:	6a 23                	push   $0x23
  100bfa:	eb 54                	jmp    100c50 <irq_common_stub>

00100bfc <_irq4>:
  100bfc:	fa                   	cli    
  100bfd:	6a 00                	push   $0x0
  100bff:	6a 24                	push   $0x24
  100c01:	eb 4d                	jmp    100c50 <irq_common_stub>

00100c03 <_irq5>:
  100c03:	fa                   	cli    
  100c04:	6a 00                	push   $0x0
  100c06:	6a 25                	push   $0x25
  100c08:	eb 46                	jmp    100c50 <irq_common_stub>

00100c0a <_irq6>:
  100c0a:	fa                   	cli    
  100c0b:	6a 00                	push   $0x0
  100c0d:	6a 26                	push   $0x26
  100c0f:	eb 3f                	jmp    100c50 <irq_common_stub>

00100c11 <_irq7>:
  100c11:	fa                   	cli    
  100c12:	6a 00                	push   $0x0
  100c14:	6a 27                	push   $0x27
  100c16:	eb 38                	jmp    100c50 <irq_common_stub>

00100c18 <_irq8>:
  100c18:	fa                   	cli    
  100c19:	6a 00                	push   $0x0
  100c1b:	6a 28                	push   $0x28
  100c1d:	eb 31                	jmp    100c50 <irq_common_stub>

00100c1f <_irq9>:
  100c1f:	fa                   	cli    
  100c20:	6a 00                	push   $0x0
  100c22:	6a 29                	push   $0x29
  100c24:	eb 2a                	jmp    100c50 <irq_common_stub>

00100c26 <_irq10>:
  100c26:	fa                   	cli    
  100c27:	6a 00                	push   $0x0
  100c29:	6a 2a                	push   $0x2a
  100c2b:	eb 23                	jmp    100c50 <irq_common_stub>

00100c2d <_irq11>:
  100c2d:	fa                   	cli    
  100c2e:	6a 00                	push   $0x0
  100c30:	6a 2b                	push   $0x2b
  100c32:	eb 1c                	jmp    100c50 <irq_common_stub>

00100c34 <_irq12>:
  100c34:	fa                   	cli    
  100c35:	6a 00                	push   $0x0
  100c37:	6a 2c                	push   $0x2c
  100c39:	eb 15                	jmp    100c50 <irq_common_stub>

00100c3b <_irq13>:
  100c3b:	fa                   	cli    
  100c3c:	6a 00                	push   $0x0
  100c3e:	6a 2d                	push   $0x2d
  100c40:	eb 0e                	jmp    100c50 <irq_common_stub>

00100c42 <_irq14>:
  100c42:	fa                   	cli    
  100c43:	6a 00                	push   $0x0
  100c45:	6a 2e                	push   $0x2e
  100c47:	eb 07                	jmp    100c50 <irq_common_stub>

00100c49 <_irq15>:
  100c49:	fa                   	cli    
  100c4a:	6a 00                	push   $0x0
  100c4c:	6a 2f                	push   $0x2f
  100c4e:	eb 00                	jmp    100c50 <irq_common_stub>

00100c50 <irq_common_stub>:
  100c50:	60                   	pusha  
  100c51:	1e                   	push   %ds
  100c52:	06                   	push   %es
  100c53:	0f a0                	push   %fs
  100c55:	0f a8                	push   %gs
  100c57:	66 b8 10 00          	mov    $0x10,%ax
  100c5b:	8e d8                	mov    %eax,%ds
  100c5d:	8e c0                	mov    %eax,%es
  100c5f:	8e e0                	mov    %eax,%fs
  100c61:	8e e8                	mov    %eax,%gs
  100c63:	89 e0                	mov    %esp,%eax
  100c65:	50                   	push   %eax
  100c66:	b8 5b 0b 10 00       	mov    $0x100b5b,%eax
  100c6b:	ff d0                	call   *%eax
  100c6d:	58                   	pop    %eax
  100c6e:	0f a9                	pop    %gs
  100c70:	0f a1                	pop    %fs
  100c72:	07                   	pop    %es
  100c73:	1f                   	pop    %ds
  100c74:	61                   	popa   
  100c75:	83 c4 08             	add    $0x8,%esp
  100c78:	cf                   	iret   

00100c79 <outb>:
  100c79:	55                   	push   %ebp
  100c7a:	89 e5                	mov    %esp,%ebp
  100c7c:	8b 45 0c             	mov    0xc(%ebp),%eax
  100c7f:	8b 55 08             	mov    0x8(%ebp),%edx
  100c82:	ee                   	out    %al,(%dx)
  100c83:	5d                   	pop    %ebp
  100c84:	c3                   	ret    

00100c85 <inb>:
  100c85:	55                   	push   %ebp
  100c86:	89 e5                	mov    %esp,%ebp
  100c88:	8b 55 08             	mov    0x8(%ebp),%edx
  100c8b:	ec                   	in     (%dx),%al
  100c8c:	5d                   	pop    %ebp
  100c8d:	c3                   	ret    

00100c8e <timer_handler>:
  100c8e:	a1 e0 1a 11 00       	mov    0x111ae0,%eax
  100c93:	31 d2                	xor    %edx,%edx
  100c95:	b9 12 00 00 00       	mov    $0x12,%ecx
  100c9a:	40                   	inc    %eax
  100c9b:	a3 e0 1a 11 00       	mov    %eax,0x111ae0
  100ca0:	f7 f1                	div    %ecx
  100ca2:	85 d2                	test   %edx,%edx
  100ca4:	75 14                	jne    100cba <timer_handler+0x2c>
  100ca6:	55                   	push   %ebp
  100ca7:	89 e5                	mov    %esp,%ebp
  100ca9:	83 ec 14             	sub    $0x14,%esp
  100cac:	68 1a 13 10 00       	push   $0x10131a
  100cb1:	e8 27 02 00 00       	call   100edd <monitor_write>
  100cb6:	83 c4 10             	add    $0x10,%esp
  100cb9:	c9                   	leave  
  100cba:	c3                   	ret    

00100cbb <timer_phase>:
  100cbb:	55                   	push   %ebp
  100cbc:	b8 dc 34 12 00       	mov    $0x1234dc,%eax
  100cc1:	99                   	cltd   
  100cc2:	89 e5                	mov    %esp,%ebp
  100cc4:	53                   	push   %ebx
  100cc5:	83 ec 0c             	sub    $0xc,%esp
  100cc8:	f7 7d 08             	idivl  0x8(%ebp)
  100ccb:	6a 36                	push   $0x36
  100ccd:	6a 43                	push   $0x43
  100ccf:	89 c3                	mov    %eax,%ebx
  100cd1:	e8 a3 ff ff ff       	call   100c79 <outb>
  100cd6:	58                   	pop    %eax
  100cd7:	5a                   	pop    %edx
  100cd8:	0f b6 c3             	movzbl %bl,%eax
  100cdb:	0f b6 df             	movzbl %bh,%ebx
  100cde:	50                   	push   %eax
  100cdf:	6a 40                	push   $0x40
  100ce1:	e8 93 ff ff ff       	call   100c79 <outb>
  100ce6:	59                   	pop    %ecx
  100ce7:	58                   	pop    %eax
  100ce8:	53                   	push   %ebx
  100ce9:	6a 40                	push   $0x40
  100ceb:	e8 89 ff ff ff       	call   100c79 <outb>
  100cf0:	83 c4 10             	add    $0x10,%esp
  100cf3:	8b 5d fc             	mov    -0x4(%ebp),%ebx
  100cf6:	c9                   	leave  
  100cf7:	c3                   	ret    

00100cf8 <timer_install>:
  100cf8:	55                   	push   %ebp
  100cf9:	89 e5                	mov    %esp,%ebp
  100cfb:	83 ec 10             	sub    $0x10,%esp
  100cfe:	68 8e 0c 10 00       	push   $0x100c8e
  100d03:	6a 00                	push   $0x0
  100d05:	e8 51 fc ff ff       	call   10095b <irq_install_handler>
  100d0a:	83 c4 10             	add    $0x10,%esp
  100d0d:	c9                   	leave  
  100d0e:	c3                   	ret    

00100d0f <timer_wait>:
  100d0f:	55                   	push   %ebp
  100d10:	a1 e0 1a 11 00       	mov    0x111ae0,%eax
  100d15:	89 e5                	mov    %esp,%ebp
  100d17:	8b 55 08             	mov    0x8(%ebp),%edx
  100d1a:	01 c2                	add    %eax,%edx
  100d1c:	39 d0                	cmp    %edx,%eax
  100d1e:	72 fc                	jb     100d1c <timer_wait+0xd>
  100d20:	5d                   	pop    %ebp
  100d21:	c3                   	ret    

00100d22 <keyboard_handler>:
  100d22:	55                   	push   %ebp
  100d23:	89 e5                	mov    %esp,%ebp
  100d25:	53                   	push   %ebx
  100d26:	83 ec 10             	sub    $0x10,%esp
  100d29:	6a 60                	push   $0x60
  100d2b:	e8 55 ff ff ff       	call   100c85 <inb>
  100d30:	0f b6 d8             	movzbl %al,%ebx
  100d33:	83 c4 10             	add    $0x10,%esp
  100d36:	84 db                	test   %bl,%bl
  100d38:	79 0a                	jns    100d44 <keyboard_handler+0x22>
  100d3a:	83 ec 0c             	sub    $0xc,%esp
  100d3d:	68 31 13 10 00       	push   $0x101331
  100d42:	eb 16                	jmp    100d5a <keyboard_handler+0x38>
  100d44:	83 ec 0c             	sub    $0xc,%esp
  100d47:	81 c3 40 10 10 00    	add    $0x101040,%ebx
  100d4d:	68 3a 13 10 00       	push   $0x10133a
  100d52:	e8 86 01 00 00       	call   100edd <monitor_write>
  100d57:	89 1c 24             	mov    %ebx,(%esp)
  100d5a:	e8 7e 01 00 00       	call   100edd <monitor_write>
  100d5f:	83 c4 10             	add    $0x10,%esp
  100d62:	8b 5d fc             	mov    -0x4(%ebp),%ebx
  100d65:	c9                   	leave  
  100d66:	c3                   	ret    

00100d67 <keyboard_install>:
  100d67:	55                   	push   %ebp
  100d68:	89 e5                	mov    %esp,%ebp
  100d6a:	83 ec 10             	sub    $0x10,%esp
  100d6d:	68 22 0d 10 00       	push   $0x100d22
  100d72:	6a 01                	push   $0x1
  100d74:	e8 e2 fb ff ff       	call   10095b <irq_install_handler>
  100d79:	83 c4 10             	add    $0x10,%esp
  100d7c:	c9                   	leave  
  100d7d:	c3                   	ret    

00100d7e <move_cursor>:
  100d7e:	55                   	push   %ebp
  100d7f:	89 e5                	mov    %esp,%ebp
  100d81:	53                   	push   %ebx
  100d82:	83 ec 0c             	sub    $0xc,%esp
  100d85:	0f b6 1d e4 1a 11 00 	movzbl 0x111ae4,%ebx
  100d8c:	0f b6 05 e5 1a 11 00 	movzbl 0x111ae5,%eax
  100d93:	6a 0e                	push   $0xe
  100d95:	68 d4 03 00 00       	push   $0x3d4
  100d9a:	8d 1c 9b             	lea    (%ebx,%ebx,4),%ebx
  100d9d:	c1 e3 04             	shl    $0x4,%ebx
  100da0:	01 c3                	add    %eax,%ebx
  100da2:	e8 d2 fe ff ff       	call   100c79 <outb>
  100da7:	58                   	pop    %eax
  100da8:	5a                   	pop    %edx
  100da9:	0f b6 c7             	movzbl %bh,%eax
  100dac:	0f b6 db             	movzbl %bl,%ebx
  100daf:	50                   	push   %eax
  100db0:	68 d5 03 00 00       	push   $0x3d5
  100db5:	e8 bf fe ff ff       	call   100c79 <outb>
  100dba:	59                   	pop    %ecx
  100dbb:	58                   	pop    %eax
  100dbc:	6a 0f                	push   $0xf
  100dbe:	68 d4 03 00 00       	push   $0x3d4
  100dc3:	e8 b1 fe ff ff       	call   100c79 <outb>
  100dc8:	58                   	pop    %eax
  100dc9:	5a                   	pop    %edx
  100dca:	53                   	push   %ebx
  100dcb:	68 d5 03 00 00       	push   $0x3d5
  100dd0:	e8 a4 fe ff ff       	call   100c79 <outb>
  100dd5:	83 c4 10             	add    $0x10,%esp
  100dd8:	8b 5d fc             	mov    -0x4(%ebp),%ebx
  100ddb:	c9                   	leave  
  100ddc:	c3                   	ret    

00100ddd <monitor_put>:
  100ddd:	55                   	push   %ebp
  100dde:	89 e5                	mov    %esp,%ebp
  100de0:	53                   	push   %ebx
  100de1:	8b 45 08             	mov    0x8(%ebp),%eax
  100de4:	3c 08                	cmp    $0x8,%al
  100de6:	75 0c                	jne    100df4 <monitor_put+0x17>
  100de8:	a0 e5 1a 11 00       	mov    0x111ae5,%al
  100ded:	84 c0                	test   %al,%al
  100def:	74 68                	je     100e59 <monitor_put+0x7c>
  100df1:	48                   	dec    %eax
  100df2:	eb 0f                	jmp    100e03 <monitor_put+0x26>
  100df4:	3c 09                	cmp    $0x9,%al
  100df6:	75 12                	jne    100e0a <monitor_put+0x2d>
  100df8:	a0 e5 1a 11 00       	mov    0x111ae5,%al
  100dfd:	83 c0 08             	add    $0x8,%eax
  100e00:	83 e0 f8             	and    $0xfffffff8,%eax
  100e03:	a2 e5 1a 11 00       	mov    %al,0x111ae5
  100e08:	eb 4f                	jmp    100e59 <monitor_put+0x7c>
  100e0a:	3c 0d                	cmp    $0xd,%al
  100e0c:	75 09                	jne    100e17 <monitor_put+0x3a>
  100e0e:	c6 05 e5 1a 11 00 00 	movb   $0x0,0x111ae5
  100e15:	eb 42                	jmp    100e59 <monitor_put+0x7c>
  100e17:	3c 0a                	cmp    $0xa,%al
  100e19:	75 0f                	jne    100e2a <monitor_put+0x4d>
  100e1b:	c6 05 e5 1a 11 00 00 	movb   $0x0,0x111ae5
  100e22:	fe 05 e4 1a 11 00    	incb   0x111ae4
  100e28:	eb 2f                	jmp    100e59 <monitor_put+0x7c>
  100e2a:	3c 1f                	cmp    $0x1f,%al
  100e2c:	7e 2b                	jle    100e59 <monitor_put+0x7c>
  100e2e:	0f b6 0d e4 1a 11 00 	movzbl 0x111ae4,%ecx
  100e35:	0f b6 1d e5 1a 11 00 	movzbl 0x111ae5,%ebx
  100e3c:	66 98                	cbtw   
  100e3e:	80 cc 0f             	or     $0xf,%ah
  100e41:	6b c9 50             	imul   $0x50,%ecx,%ecx
  100e44:	89 da                	mov    %ebx,%edx
  100e46:	42                   	inc    %edx
  100e47:	01 d9                	add    %ebx,%ecx
  100e49:	8b 1d 5c 18 10 00    	mov    0x10185c,%ebx
  100e4f:	66 89 04 4b          	mov    %ax,(%ebx,%ecx,2)
  100e53:	88 15 e5 1a 11 00    	mov    %dl,0x111ae5
  100e59:	80 3d e5 1a 11 00 4f 	cmpb   $0x4f,0x111ae5
  100e60:	76 0d                	jbe    100e6f <monitor_put+0x92>
  100e62:	fe 05 e4 1a 11 00    	incb   0x111ae4
  100e68:	c6 05 e5 1a 11 00 00 	movb   $0x0,0x111ae5
  100e6f:	80 3d e4 1a 11 00 18 	cmpb   $0x18,0x111ae4
  100e76:	76 31                	jbe    100ea9 <monitor_put+0xcc>
  100e78:	8b 15 5c 18 10 00    	mov    0x10185c,%edx
  100e7e:	31 c0                	xor    %eax,%eax
  100e80:	66 8b 8c 42 a0 00 00 	mov    0xa0(%edx,%eax,2),%cx
  100e87:	00 
  100e88:	66 89 0c 42          	mov    %cx,(%edx,%eax,2)
  100e8c:	40                   	inc    %eax
  100e8d:	3d 80 07 00 00       	cmp    $0x780,%eax
  100e92:	75 ec                	jne    100e80 <monitor_put+0xa3>
  100e94:	66 c7 04 42 20 0f    	movw   $0xf20,(%edx,%eax,2)
  100e9a:	40                   	inc    %eax
  100e9b:	3d d0 07 00 00       	cmp    $0x7d0,%eax
  100ea0:	75 f2                	jne    100e94 <monitor_put+0xb7>
  100ea2:	c6 05 e4 1a 11 00 18 	movb   $0x18,0x111ae4
  100ea9:	5b                   	pop    %ebx
  100eaa:	5d                   	pop    %ebp
  100eab:	e9 ce fe ff ff       	jmp    100d7e <move_cursor>

00100eb0 <monitor_clear>:
  100eb0:	55                   	push   %ebp
  100eb1:	8b 15 5c 18 10 00    	mov    0x10185c,%edx
  100eb7:	31 c0                	xor    %eax,%eax
  100eb9:	89 e5                	mov    %esp,%ebp
  100ebb:	66 c7 04 42 20 0f    	movw   $0xf20,(%edx,%eax,2)
  100ec1:	40                   	inc    %eax
  100ec2:	3d d0 07 00 00       	cmp    $0x7d0,%eax
  100ec7:	75 f2                	jne    100ebb <monitor_clear+0xb>
  100ec9:	5d                   	pop    %ebp
  100eca:	c6 05 e5 1a 11 00 00 	movb   $0x0,0x111ae5
  100ed1:	c6 05 e4 1a 11 00 00 	movb   $0x0,0x111ae4
  100ed8:	e9 a1 fe ff ff       	jmp    100d7e <move_cursor>

00100edd <monitor_write>:
  100edd:	55                   	push   %ebp
  100ede:	89 e5                	mov    %esp,%ebp
  100ee0:	53                   	push   %ebx
  100ee1:	50                   	push   %eax
  100ee2:	8b 5d 08             	mov    0x8(%ebp),%ebx
  100ee5:	43                   	inc    %ebx
  100ee6:	0f be 43 ff          	movsbl -0x1(%ebx),%eax
  100eea:	84 c0                	test   %al,%al
  100eec:	74 0e                	je     100efc <monitor_write+0x1f>
  100eee:	83 ec 0c             	sub    $0xc,%esp
  100ef1:	50                   	push   %eax
  100ef2:	e8 e6 fe ff ff       	call   100ddd <monitor_put>
  100ef7:	83 c4 10             	add    $0x10,%esp
  100efa:	eb e9                	jmp    100ee5 <monitor_write+0x8>
  100efc:	8b 5d fc             	mov    -0x4(%ebp),%ebx
  100eff:	c9                   	leave  
  100f00:	c3                   	ret    

00100f01 <monitor_write_hex>:
  100f01:	55                   	push   %ebp
  100f02:	89 e5                	mov    %esp,%ebp
  100f04:	56                   	push   %esi
  100f05:	53                   	push   %ebx
  100f06:	be 1c 00 00 00       	mov    $0x1c,%esi
  100f0b:	8b 5d 08             	mov    0x8(%ebp),%ebx
  100f0e:	83 ec 0c             	sub    $0xc,%esp
  100f11:	68 47 13 10 00       	push   $0x101347
  100f16:	e8 c2 ff ff ff       	call   100edd <monitor_write>
  100f1b:	83 c4 10             	add    $0x10,%esp
  100f1e:	b2 01                	mov    $0x1,%dl
  100f20:	89 d8                	mov    %ebx,%eax
  100f22:	89 f1                	mov    %esi,%ecx
  100f24:	d3 e8                	shr    %cl,%eax
  100f26:	83 e0 0f             	and    $0xf,%eax
  100f29:	75 0b                	jne    100f36 <monitor_write_hex+0x35>
  100f2b:	88 d1                	mov    %dl,%cl
  100f2d:	b2 01                	mov    $0x1,%dl
  100f2f:	83 e1 01             	and    $0x1,%ecx
  100f32:	84 c9                	test   %cl,%cl
  100f34:	75 21                	jne    100f57 <monitor_write_hex+0x56>
  100f36:	83 f8 09             	cmp    $0x9,%eax
  100f39:	7e 0b                	jle    100f46 <monitor_write_hex+0x45>
  100f3b:	83 c0 57             	add    $0x57,%eax
  100f3e:	83 ec 0c             	sub    $0xc,%esp
  100f41:	0f b6 c0             	movzbl %al,%eax
  100f44:	eb 06                	jmp    100f4c <monitor_write_hex+0x4b>
  100f46:	83 ec 0c             	sub    $0xc,%esp
  100f49:	83 c0 30             	add    $0x30,%eax
  100f4c:	50                   	push   %eax
  100f4d:	e8 8b fe ff ff       	call   100ddd <monitor_put>
  100f52:	83 c4 10             	add    $0x10,%esp
  100f55:	31 d2                	xor    %edx,%edx
  100f57:	83 ee 04             	sub    $0x4,%esi
  100f5a:	75 c4                	jne    100f20 <monitor_write_hex+0x1f>
  100f5c:	89 d8                	mov    %ebx,%eax
  100f5e:	83 e0 0f             	and    $0xf,%eax
  100f61:	83 f8 09             	cmp    $0x9,%eax
  100f64:	7e 08                	jle    100f6e <monitor_write_hex+0x6d>
  100f66:	83 c0 57             	add    $0x57,%eax
  100f69:	0f b6 c0             	movzbl %al,%eax
  100f6c:	eb 03                	jmp    100f71 <monitor_write_hex+0x70>
  100f6e:	83 c0 30             	add    $0x30,%eax
  100f71:	89 45 08             	mov    %eax,0x8(%ebp)
  100f74:	8d 65 f8             	lea    -0x8(%ebp),%esp
  100f77:	5b                   	pop    %ebx
  100f78:	5e                   	pop    %esi
  100f79:	5d                   	pop    %ebp
  100f7a:	e9 5e fe ff ff       	jmp    100ddd <monitor_put>

00100f7f <monitor_write_dec>:
  100f7f:	55                   	push   %ebp
  100f80:	89 e5                	mov    %esp,%ebp
  100f82:	57                   	push   %edi
  100f83:	56                   	push   %esi
  100f84:	53                   	push   %ebx
  100f85:	83 ec 4c             	sub    $0x4c,%esp
  100f88:	8b 45 08             	mov    0x8(%ebp),%eax
  100f8b:	85 c0                	test   %eax,%eax
  100f8d:	75 0c                	jne    100f9b <monitor_write_dec+0x1c>
  100f8f:	83 ec 0c             	sub    $0xc,%esp
  100f92:	6a 30                	push   $0x30
  100f94:	e8 44 fe ff ff       	call   100ddd <monitor_put>
  100f99:	eb 45                	jmp    100fe0 <monitor_write_dec+0x61>
  100f9b:	31 c9                	xor    %ecx,%ecx
  100f9d:	bb 0a 00 00 00       	mov    $0xa,%ebx
  100fa2:	85 c0                	test   %eax,%eax
  100fa4:	7e 0d                	jle    100fb3 <monitor_write_dec+0x34>
  100fa6:	99                   	cltd   
  100fa7:	f7 fb                	idiv   %ebx
  100fa9:	83 c2 30             	add    $0x30,%edx
  100fac:	88 54 0d a8          	mov    %dl,-0x58(%ebp,%ecx,1)
  100fb0:	41                   	inc    %ecx
  100fb1:	eb ef                	jmp    100fa2 <monitor_write_dec+0x23>
  100fb3:	8d 55 c8             	lea    -0x38(%ebp),%edx
  100fb6:	c6 44 0d a8 00       	movb   $0x0,-0x58(%ebp,%ecx,1)
  100fbb:	c6 44 0d c8 00       	movb   $0x0,-0x38(%ebp,%ecx,1)
  100fc0:	31 c0                	xor    %eax,%eax
  100fc2:	8d 34 0a             	lea    (%edx,%ecx,1),%esi
  100fc5:	39 c1                	cmp    %eax,%ecx
  100fc7:	74 0e                	je     100fd7 <monitor_write_dec+0x58>
  100fc9:	40                   	inc    %eax
  100fca:	8a 5c 05 a7          	mov    -0x59(%ebp,%eax,1),%bl
  100fce:	89 c7                	mov    %eax,%edi
  100fd0:	f7 df                	neg    %edi
  100fd2:	88 1c 3e             	mov    %bl,(%esi,%edi,1)
  100fd5:	eb ee                	jmp    100fc5 <monitor_write_dec+0x46>
  100fd7:	83 ec 0c             	sub    $0xc,%esp
  100fda:	52                   	push   %edx
  100fdb:	e8 fd fe ff ff       	call   100edd <monitor_write>
  100fe0:	83 c4 10             	add    $0x10,%esp
  100fe3:	8d 65 f4             	lea    -0xc(%ebp),%esp
  100fe6:	5b                   	pop    %ebx
  100fe7:	5e                   	pop    %esi
  100fe8:	5f                   	pop    %edi
  100fe9:	5d                   	pop    %ebp
  100fea:	c3                   	ret    

00100feb <memset>:
  100feb:	55                   	push   %ebp
  100fec:	31 d2                	xor    %edx,%edx
  100fee:	89 e5                	mov    %esp,%ebp
  100ff0:	8b 45 08             	mov    0x8(%ebp),%eax
  100ff3:	8b 4d 0c             	mov    0xc(%ebp),%ecx
  100ff6:	3b 55 10             	cmp    0x10(%ebp),%edx
  100ff9:	74 06                	je     101001 <memset+0x16>
  100ffb:	88 0c 10             	mov    %cl,(%eax,%edx,1)
  100ffe:	42                   	inc    %edx
  100fff:	eb f5                	jmp    100ff6 <memset+0xb>
  101001:	5d                   	pop    %ebp
  101002:	c3                   	ret    

Disassembly of section .rodata:

00101020 <CSWTCH.5>:
  101020:	00 00                	add    %al,(%eax)
  101022:	0a 00                	or     (%eax),%al
  101024:	00 00                	add    %al,(%eax)
  101026:	0a 00                	or     (%eax),%al
  101028:	00 00                	add    %al,(%eax)
  10102a:	0b 00                	or     (%eax),%eax
  10102c:	00 80 0b 00 00 00    	add    %al,0xb(%eax)
	...

00101040 <kbdus>:
  101040:	00 1b                	add    %bl,(%ebx)
  101042:	31 32                	xor    %esi,(%edx)
  101044:	33 34 35 36 37 38 39 	xor    0x39383736(,%esi,1),%esi
  10104b:	30 2d 3d 08 09 71    	xor    %ch,0x7109083d
  101051:	77 65                	ja     1010b8 <kbdus+0x78>
  101053:	72 74                	jb     1010c9 <kbdus+0x89>
  101055:	79 75                	jns    1010cc <kbdus+0x8c>
  101057:	69 6f 70 5b 5d 0a 00 	imul   $0xa5d5b,0x70(%edi),%ebp
  10105e:	61                   	popa   
  10105f:	73 64                	jae    1010c5 <kbdus+0x85>
  101061:	66 67 68 6a 6b       	addr16 pushw $0x6b6a
  101066:	6c                   	insb   (%dx),%es:(%edi)
  101067:	3b 27                	cmp    (%edi),%esp
  101069:	60                   	pusha  
  10106a:	00 5c 7a 78          	add    %bl,0x78(%edx,%edi,2)
  10106e:	63 76 62             	arpl   %si,0x62(%esi)
  101071:	6e                   	outsb  %ds:(%esi),(%dx)
  101072:	6d                   	insl   (%dx),%es:(%edi)
  101073:	2c 2e                	sub    $0x2e,%al
  101075:	2f                   	das    
  101076:	00 2a                	add    %ch,(%edx)
  101078:	00 20                	add    %ah,(%eax)
	...
  10108a:	2d 00 00 00 2b       	sub    $0x2b000000,%eax
	...

Disassembly of section .rodata.str1.1:

001010c0 <.rodata.str1.1>:
  1010c0:	20 45 78             	and    %al,0x78(%ebp)
  1010c3:	63 65 70             	arpl   %sp,0x70(%ebp)
  1010c6:	74 69                	je     101131 <kbdus+0xf1>
  1010c8:	6f                   	outsl  %ds:(%esi),(%dx)
  1010c9:	6e                   	outsb  %ds:(%esi),(%dx)
  1010ca:	2e 20 53 79          	and    %dl,%cs:0x79(%ebx)
  1010ce:	73 74                	jae    101144 <kbdus+0x104>
  1010d0:	65 6d                	gs insl (%dx),%es:(%edi)
  1010d2:	20 48 61             	and    %cl,0x61(%eax)
  1010d5:	6c                   	insb   (%dx),%es:(%edi)
  1010d6:	74 65                	je     10113d <kbdus+0xfd>
  1010d8:	64 21 0a             	and    %ecx,%fs:(%edx)
  1010db:	00 69 6e             	add    %ch,0x6e(%ecx)
  1010de:	74 20                	je     101100 <kbdus+0xc0>
  1010e0:	6e                   	outsb  %ds:(%esi),(%dx)
  1010e1:	75 6d                	jne    101150 <kbdus+0x110>
  1010e3:	62 65 72             	bound  %esp,0x72(%ebp)
  1010e6:	20 3e                	and    %bh,(%esi)
  1010e8:	20 33                	and    %dh,(%ebx)
  1010ea:	32 0a                	xor    (%edx),%cl
  1010ec:	00 44 69 76          	add    %al,0x76(%ecx,%ebp,2)
  1010f0:	69 73 69 6f 6e 20 42 	imul   $0x42206e6f,0x69(%ebx),%esi
  1010f7:	79 20                	jns    101119 <kbdus+0xd9>
  1010f9:	5a                   	pop    %edx
  1010fa:	65 72 6f             	gs jb  10116c <kbdus+0x12c>
  1010fd:	20 45 78             	and    %al,0x78(%ebp)
  101100:	63 65 70             	arpl   %sp,0x70(%ebp)
  101103:	74 69                	je     10116e <kbdus+0x12e>
  101105:	6f                   	outsl  %ds:(%esi),(%dx)
  101106:	6e                   	outsb  %ds:(%esi),(%dx)
  101107:	00 44 65 62          	add    %al,0x62(%ebp,%eiz,2)
  10110b:	75 67                	jne    101174 <kbdus+0x134>
  10110d:	20 45 78             	and    %al,0x78(%ebp)
  101110:	63 65 70             	arpl   %sp,0x70(%ebp)
  101113:	74 69                	je     10117e <kbdus+0x13e>
  101115:	6f                   	outsl  %ds:(%esi),(%dx)
  101116:	6e                   	outsb  %ds:(%esi),(%dx)
  101117:	00 4d 61             	add    %cl,0x61(%ebp)
  10111a:	73 6b                	jae    101187 <kbdus+0x147>
  10111c:	61                   	popa   
  10111d:	62 6c 65 20          	bound  %ebp,0x20(%ebp,%eiz,2)
  101121:	49                   	dec    %ecx
  101122:	6e                   	outsb  %ds:(%esi),(%dx)
  101123:	74 65                	je     10118a <kbdus+0x14a>
  101125:	72 72                	jb     101199 <kbdus+0x159>
  101127:	75 70                	jne    101199 <kbdus+0x159>
  101129:	74 20                	je     10114b <kbdus+0x10b>
  10112b:	45                   	inc    %ebp
  10112c:	78 63                	js     101191 <kbdus+0x151>
  10112e:	65 70 74             	gs jo  1011a5 <kbdus+0x165>
  101131:	69 6f 6e 00 42 72 65 	imul   $0x65724200,0x6e(%edi),%ebp
  101138:	61                   	popa   
  101139:	6b 70 6f 69          	imul   $0x69,0x6f(%eax),%esi
  10113d:	6e                   	outsb  %ds:(%esi),(%dx)
  10113e:	74 20                	je     101160 <kbdus+0x120>
  101140:	45                   	inc    %ebp
  101141:	78 63                	js     1011a6 <kbdus+0x166>
  101143:	65 70 74             	gs jo  1011ba <kbdus+0x17a>
  101146:	69 6f 6e 00 49 6e 74 	imul   $0x746e4900,0x6e(%edi),%ebp
  10114d:	6f                   	outsl  %ds:(%esi),(%dx)
  10114e:	20 44 65 74          	and    %al,0x74(%ebp,%eiz,2)
  101152:	65 63 74 65 64       	arpl   %si,%gs:0x64(%ebp,%eiz,2)
  101157:	20 4f 76             	and    %cl,0x76(%edi)
  10115a:	65 72 66             	gs jb  1011c3 <kbdus+0x183>
  10115d:	6c                   	insb   (%dx),%es:(%edi)
  10115e:	6f                   	outsl  %ds:(%esi),(%dx)
  10115f:	77 20                	ja     101181 <kbdus+0x141>
  101161:	45                   	inc    %ebp
  101162:	78 63                	js     1011c7 <kbdus+0x187>
  101164:	65 70 74             	gs jo  1011db <kbdus+0x19b>
  101167:	69 6f 6e 00 4f 75 74 	imul   $0x74754f00,0x6e(%edi),%ebp
  10116e:	20 6f 66             	and    %ch,0x66(%edi)
  101171:	20 42 6f             	and    %al,0x6f(%edx)
  101174:	75 6e                	jne    1011e4 <kbdus+0x1a4>
  101176:	64 73 20             	fs jae 101199 <kbdus+0x159>
  101179:	45                   	inc    %ebp
  10117a:	78 63                	js     1011df <kbdus+0x19f>
  10117c:	65 70 74             	gs jo  1011f3 <kbdus+0x1b3>
  10117f:	69 6f 6e 00 49 6e 76 	imul   $0x766e4900,0x6e(%edi),%ebp
  101186:	61                   	popa   
  101187:	6c                   	insb   (%dx),%es:(%edi)
  101188:	69 64 20 4f 70 63 6f 	imul   $0x646f6370,0x4f(%eax,%eiz,1),%esp
  10118f:	64 
  101190:	65 20 45 78          	and    %al,%gs:0x78(%ebp)
  101194:	63 65 70             	arpl   %sp,0x70(%ebp)
  101197:	74 69                	je     101202 <kbdus+0x1c2>
  101199:	6f                   	outsl  %ds:(%esi),(%dx)
  10119a:	6e                   	outsb  %ds:(%esi),(%dx)
  10119b:	00 43 6f             	add    %al,0x6f(%ebx)
  10119e:	70 72                	jo     101212 <kbdus+0x1d2>
  1011a0:	6f                   	outsl  %ds:(%esi),(%dx)
  1011a1:	63 65 73             	arpl   %sp,0x73(%ebp)
  1011a4:	73 6f                	jae    101215 <kbdus+0x1d5>
  1011a6:	72 20                	jb     1011c8 <kbdus+0x188>
  1011a8:	45                   	inc    %ebp
  1011a9:	78 63                	js     10120e <kbdus+0x1ce>
  1011ab:	65 70 74             	gs jo  101222 <kbdus+0x1e2>
  1011ae:	69 6f 6e 00 44 6f 75 	imul   $0x756f4400,0x6e(%edi),%ebp
  1011b5:	62 6c 65 20          	bound  %ebp,0x20(%ebp,%eiz,2)
  1011b9:	46                   	inc    %esi
  1011ba:	61                   	popa   
  1011bb:	75 6c                	jne    101229 <kbdus+0x1e9>
  1011bd:	74 20                	je     1011df <kbdus+0x19f>
  1011bf:	45                   	inc    %ebp
  1011c0:	78 63                	js     101225 <kbdus+0x1e5>
  1011c2:	65 70 74             	gs jo  101239 <kbdus+0x1f9>
  1011c5:	69 6f 6e 00 43 6f 70 	imul   $0x706f4300,0x6e(%edi),%ebp
  1011cc:	72 6f                	jb     10123d <kbdus+0x1fd>
  1011ce:	63 65 73             	arpl   %sp,0x73(%ebp)
  1011d1:	73 6f                	jae    101242 <kbdus+0x202>
  1011d3:	72 20                	jb     1011f5 <kbdus+0x1b5>
  1011d5:	53                   	push   %ebx
  1011d6:	65 67 6d             	gs insl (%dx),%es:(%di)
  1011d9:	65 6e                	outsb  %gs:(%esi),(%dx)
  1011db:	74 20                	je     1011fd <kbdus+0x1bd>
  1011dd:	4f                   	dec    %edi
  1011de:	76 65                	jbe    101245 <kbdus+0x205>
  1011e0:	72 72                	jb     101254 <kbdus+0x214>
  1011e2:	75 6e                	jne    101252 <kbdus+0x212>
  1011e4:	20 45 78             	and    %al,0x78(%ebp)
  1011e7:	63 65 70             	arpl   %sp,0x70(%ebp)
  1011ea:	74 69                	je     101255 <kbdus+0x215>
  1011ec:	6f                   	outsl  %ds:(%esi),(%dx)
  1011ed:	6e                   	outsb  %ds:(%esi),(%dx)
  1011ee:	00 42 61             	add    %al,0x61(%edx)
  1011f1:	64 20 54 53 53       	and    %dl,%fs:0x53(%ebx,%edx,2)
  1011f6:	20 45 78             	and    %al,0x78(%ebp)
  1011f9:	63 65 70             	arpl   %sp,0x70(%ebp)
  1011fc:	74 69                	je     101267 <kbdus+0x227>
  1011fe:	6f                   	outsl  %ds:(%esi),(%dx)
  1011ff:	6e                   	outsb  %ds:(%esi),(%dx)
  101200:	00 53 65             	add    %dl,0x65(%ebx)
  101203:	67 6d                	insl   (%dx),%es:(%di)
  101205:	65 6e                	outsb  %gs:(%esi),(%dx)
  101207:	74 20                	je     101229 <kbdus+0x1e9>
  101209:	4e                   	dec    %esi
  10120a:	6f                   	outsl  %ds:(%esi),(%dx)
  10120b:	74 20                	je     10122d <kbdus+0x1ed>
  10120d:	50                   	push   %eax
  10120e:	72 65                	jb     101275 <kbdus+0x235>
  101210:	73 65                	jae    101277 <kbdus+0x237>
  101212:	6e                   	outsb  %ds:(%esi),(%dx)
  101213:	74 20                	je     101235 <kbdus+0x1f5>
  101215:	45                   	inc    %ebp
  101216:	78 63                	js     10127b <kbdus+0x23b>
  101218:	65 70 74             	gs jo  10128f <kbdus+0x24f>
  10121b:	69 6f 6e 00 53 74 61 	imul   $0x61745300,0x6e(%edi),%ebp
  101222:	63 6b 20             	arpl   %bp,0x20(%ebx)
  101225:	46                   	inc    %esi
  101226:	61                   	popa   
  101227:	75 6c                	jne    101295 <kbdus+0x255>
  101229:	74 20                	je     10124b <kbdus+0x20b>
  10122b:	45                   	inc    %ebp
  10122c:	78 63                	js     101291 <kbdus+0x251>
  10122e:	65 70 74             	gs jo  1012a5 <kbdus+0x265>
  101231:	69 6f 6e 00 47 65 6e 	imul   $0x6e654700,0x6e(%edi),%ebp
  101238:	65 72 61             	gs jb  10129c <kbdus+0x25c>
  10123b:	6c                   	insb   (%dx),%es:(%edi)
  10123c:	20 50 72             	and    %dl,0x72(%eax)
  10123f:	6f                   	outsl  %ds:(%esi),(%dx)
  101240:	74 65                	je     1012a7 <kbdus+0x267>
  101242:	63 74 69 6f          	arpl   %si,0x6f(%ecx,%ebp,2)
  101246:	6e                   	outsb  %ds:(%esi),(%dx)
  101247:	20 46 61             	and    %al,0x61(%esi)
  10124a:	75 6c                	jne    1012b8 <kbdus+0x278>
  10124c:	74 20                	je     10126e <kbdus+0x22e>
  10124e:	45                   	inc    %ebp
  10124f:	78 63                	js     1012b4 <kbdus+0x274>
  101251:	65 70 74             	gs jo  1012c8 <kbdus+0x288>
  101254:	69 6f 6e 00 50 61 67 	imul   $0x67615000,0x6e(%edi),%ebp
  10125b:	65 20 46 61          	and    %al,%gs:0x61(%esi)
  10125f:	75 6c                	jne    1012cd <kbdus+0x28d>
  101261:	74 20                	je     101283 <kbdus+0x243>
  101263:	45                   	inc    %ebp
  101264:	78 63                	js     1012c9 <kbdus+0x289>
  101266:	65 70 74             	gs jo  1012dd <kbdus+0x29d>
  101269:	69 6f 6e 00 55 6e 6b 	imul   $0x6b6e5500,0x6e(%edi),%ebp
  101270:	6e                   	outsb  %ds:(%esi),(%dx)
  101271:	6f                   	outsl  %ds:(%esi),(%dx)
  101272:	77 6e                	ja     1012e2 <kbdus+0x2a2>
  101274:	20 49 6e             	and    %cl,0x6e(%ecx)
  101277:	74 65                	je     1012de <kbdus+0x29e>
  101279:	72 72                	jb     1012ed <kbdus+0x2ad>
  10127b:	75 70                	jne    1012ed <kbdus+0x2ad>
  10127d:	74 20                	je     10129f <kbdus+0x25f>
  10127f:	45                   	inc    %ebp
  101280:	78 63                	js     1012e5 <kbdus+0x2a5>
  101282:	65 70 74             	gs jo  1012f9 <kbdus+0x2b9>
  101285:	69 6f 6e 00 43 6f 70 	imul   $0x706f4300,0x6e(%edi),%ebp
  10128c:	72 6f                	jb     1012fd <kbdus+0x2bd>
  10128e:	63 65 73             	arpl   %sp,0x73(%ebp)
  101291:	73 6f                	jae    101302 <kbdus+0x2c2>
  101293:	72 20                	jb     1012b5 <kbdus+0x275>
  101295:	46                   	inc    %esi
  101296:	61                   	popa   
  101297:	75 6c                	jne    101305 <kbdus+0x2c5>
  101299:	74 20                	je     1012bb <kbdus+0x27b>
  10129b:	45                   	inc    %ebp
  10129c:	78 63                	js     101301 <kbdus+0x2c1>
  10129e:	65 70 74             	gs jo  101315 <kbdus+0x2d5>
  1012a1:	69 6f 6e 00 41 6c 69 	imul   $0x696c4100,0x6e(%edi),%ebp
  1012a8:	67 6e                	outsb  %ds:(%si),(%dx)
  1012aa:	6d                   	insl   (%dx),%es:(%edi)
  1012ab:	65 6e                	outsb  %gs:(%esi),(%dx)
  1012ad:	74 20                	je     1012cf <kbdus+0x28f>
  1012af:	43                   	inc    %ebx
  1012b0:	68 65 63 6b 20       	push   $0x206b6365
  1012b5:	45                   	inc    %ebp
  1012b6:	78 63                	js     10131b <kbdus+0x2db>
  1012b8:	65 70 74             	gs jo  10132f <kbdus+0x2ef>
  1012bb:	69 6f 6e 00 4d 61 63 	imul   $0x63614d00,0x6e(%edi),%ebp
  1012c2:	68 69 6e 65 20       	push   $0x20656e69
  1012c7:	43                   	inc    %ebx
  1012c8:	68 65 63 6b 20       	push   $0x206b6365
  1012cd:	45                   	inc    %ebp
  1012ce:	78 63                	js     101333 <kbdus+0x2f3>
  1012d0:	65 70 74             	gs jo  101347 <kbdus+0x307>
  1012d3:	69 6f 6e 00 52 65 73 	imul   $0x73655200,0x6e(%edi),%ebp
  1012da:	65 72 76             	gs jb  101353 <kbdus+0x313>
  1012dd:	65 64 20 45 78       	gs and %al,%fs:0x78(%ebp)
  1012e2:	63 65 70             	arpl   %sp,0x70(%ebp)
  1012e5:	74 69                	je     101350 <kbdus+0x310>
  1012e7:	6f                   	outsl  %ds:(%esi),(%dx)
  1012e8:	6e                   	outsb  %ds:(%esi),(%dx)
  1012e9:	00 68 61             	add    %ch,0x61(%eax)
  1012ec:	6e                   	outsb  %ds:(%esi),(%dx)
  1012ed:	64 6c                	fs insb (%dx),%es:(%edi)
  1012ef:	65 72 20             	gs jb  101312 <kbdus+0x2d2>
  1012f2:	6e                   	outsb  %ds:(%esi),(%dx)
  1012f3:	6f                   	outsl  %ds:(%esi),(%dx)
  1012f4:	74 20                	je     101316 <kbdus+0x2d6>
  1012f6:	6e                   	outsb  %ds:(%esi),(%dx)
  1012f7:	75 6c                	jne    101365 <libvga_default_palette+0x5>
  1012f9:	6c                   	insb   (%dx),%es:(%edi)
  1012fa:	0a 00                	or     (%eax),%al
  1012fc:	68 61 6e 64 6c       	push   $0x6c646e61
  101301:	65 72 20             	gs jb  101324 <kbdus+0x2e4>
  101304:	6e                   	outsb  %ds:(%esi),(%dx)
  101305:	75 6c                	jne    101373 <libvga_default_palette+0x13>
  101307:	6c                   	insb   (%dx),%es:(%edi)
  101308:	0a 00                	or     (%eax),%al
  10130a:	65 72 72             	gs jb  10137f <libvga_default_palette+0x1f>
  10130d:	5f                   	pop    %edi
  10130e:	63 6f 64             	arpl   %bp,0x64(%edi)
  101311:	65 20 3e             	and    %bh,%gs:(%esi)
  101314:	3d 20 33 32 0a       	cmp    $0xa323320,%eax
  101319:	00 4f 6e             	add    %cl,0x6e(%edi)
  10131c:	65 20 73 65          	and    %dh,%gs:0x65(%ebx)
  101320:	63 6f 6e             	arpl   %bp,0x6e(%edi)
  101323:	64 20 68 61          	and    %ch,%fs:0x61(%eax)
  101327:	73 20                	jae    101349 <kbdus+0x309>
  101329:	70 61                	jo     10138c <libvga_default_palette+0x2c>
  10132b:	73 73                	jae    1013a0 <libvga_default_palette+0x40>
  10132d:	65 64 0a 00          	gs or  %fs:(%eax),%al
  101331:	73 63                	jae    101396 <libvga_default_palette+0x36>
  101333:	61                   	popa   
  101334:	6e                   	outsb  %ds:(%esi),(%dx)
  101335:	63 6f 64             	arpl   %bp,0x64(%edi)
  101338:	65 00 6b 65          	add    %ch,%gs:0x65(%ebx)
  10133c:	79 62                	jns    1013a0 <libvga_default_palette+0x40>
  10133e:	6f                   	outsl  %ds:(%esi),(%dx)
  10133f:	61                   	popa   
  101340:	72 64                	jb     1013a6 <libvga_default_palette+0x46>
  101342:	20 69 6e             	and    %ch,0x6e(%ecx)
  101345:	74 00                	je     101347 <kbdus+0x307>
  101347:	30 78 00             	xor    %bh,0x0(%eax)

Disassembly of section .data:

00101360 <libvga_default_palette>:
  101360:	00 00                	add    %al,(%eax)
  101362:	00 00                	add    %al,(%eax)
  101364:	00 00                	add    %al,(%eax)
  101366:	80 00 00             	addb   $0x0,(%eax)
  101369:	80 00 00             	addb   $0x0,(%eax)
  10136c:	00 80 80 00 80 00    	add    %al,0x800080(%eax)
  101372:	00 00                	add    %al,(%eax)
  101374:	80 00 80             	addb   $0x80,(%eax)
  101377:	00 80 80 00 00 c0    	add    %al,-0x3fffff80(%eax)
  10137d:	c0 c0 00             	rol    $0x0,%al
  101380:	c0 dc c0             	rcr    $0xc0,%ah
  101383:	00 f0                	add    %dh,%al
  101385:	ca a6 00             	lret   $0xa6
  101388:	00 20                	add    %ah,(%eax)
  10138a:	40                   	inc    %eax
  10138b:	00 00                	add    %al,(%eax)
  10138d:	20 60 00             	and    %ah,0x0(%eax)
  101390:	00 20                	add    %ah,(%eax)
  101392:	80 00 00             	addb   $0x0,(%eax)
  101395:	20 a0 00 00 20 c0    	and    %ah,-0x3fe00000(%eax)
  10139b:	00 00                	add    %al,(%eax)
  10139d:	20 e0                	and    %ah,%al
  10139f:	00 00                	add    %al,(%eax)
  1013a1:	40                   	inc    %eax
  1013a2:	00 00                	add    %al,(%eax)
  1013a4:	00 40 20             	add    %al,0x20(%eax)
  1013a7:	00 00                	add    %al,(%eax)
  1013a9:	40                   	inc    %eax
  1013aa:	40                   	inc    %eax
  1013ab:	00 00                	add    %al,(%eax)
  1013ad:	40                   	inc    %eax
  1013ae:	60                   	pusha  
  1013af:	00 00                	add    %al,(%eax)
  1013b1:	40                   	inc    %eax
  1013b2:	80 00 00             	addb   $0x0,(%eax)
  1013b5:	40                   	inc    %eax
  1013b6:	a0 00 00 40 c0       	mov    0xc0400000,%al
  1013bb:	00 00                	add    %al,(%eax)
  1013bd:	40                   	inc    %eax
  1013be:	e0 00                	loopne 1013c0 <libvga_default_palette+0x60>
  1013c0:	00 60 00             	add    %ah,0x0(%eax)
  1013c3:	00 00                	add    %al,(%eax)
  1013c5:	60                   	pusha  
  1013c6:	20 00                	and    %al,(%eax)
  1013c8:	00 60 40             	add    %ah,0x40(%eax)
  1013cb:	00 00                	add    %al,(%eax)
  1013cd:	60                   	pusha  
  1013ce:	60                   	pusha  
  1013cf:	00 00                	add    %al,(%eax)
  1013d1:	60                   	pusha  
  1013d2:	80 00 00             	addb   $0x0,(%eax)
  1013d5:	60                   	pusha  
  1013d6:	a0 00 00 60 c0       	mov    0xc0600000,%al
  1013db:	00 00                	add    %al,(%eax)
  1013dd:	60                   	pusha  
  1013de:	e0 00                	loopne 1013e0 <libvga_default_palette+0x80>
  1013e0:	00 80 00 00 00 80    	add    %al,-0x80000000(%eax)
  1013e6:	20 00                	and    %al,(%eax)
  1013e8:	00 80 40 00 00 80    	add    %al,-0x7fffffc0(%eax)
  1013ee:	60                   	pusha  
  1013ef:	00 00                	add    %al,(%eax)
  1013f1:	80 80 00 00 80 a0 00 	addb   $0x0,-0x5f800000(%eax)
  1013f8:	00 80 c0 00 00 80    	add    %al,-0x7fffff40(%eax)
  1013fe:	e0 00                	loopne 101400 <libvga_default_palette+0xa0>
  101400:	00 a0 00 00 00 a0    	add    %ah,-0x60000000(%eax)
  101406:	20 00                	and    %al,(%eax)
  101408:	00 a0 40 00 00 a0    	add    %ah,-0x5fffffc0(%eax)
  10140e:	60                   	pusha  
  10140f:	00 00                	add    %al,(%eax)
  101411:	a0 80 00 00 a0       	mov    0xa0000080,%al
  101416:	a0 00 00 a0 c0       	mov    0xc0a00000,%al
  10141b:	00 00                	add    %al,(%eax)
  10141d:	a0 e0 00 00 c0       	mov    0xc00000e0,%al
  101422:	00 00                	add    %al,(%eax)
  101424:	00 c0                	add    %al,%al
  101426:	20 00                	and    %al,(%eax)
  101428:	00 c0                	add    %al,%al
  10142a:	40                   	inc    %eax
  10142b:	00 00                	add    %al,(%eax)
  10142d:	c0 60 00 00          	shlb   $0x0,0x0(%eax)
  101431:	c0 80 00 00 c0 a0 00 	rolb   $0x0,-0x5f400000(%eax)
  101438:	00 c0                	add    %al,%al
  10143a:	c0 00 00             	rolb   $0x0,(%eax)
  10143d:	c0 e0 00             	shl    $0x0,%al
  101440:	00 e0                	add    %ah,%al
  101442:	00 00                	add    %al,(%eax)
  101444:	00 e0                	add    %ah,%al
  101446:	20 00                	and    %al,(%eax)
  101448:	00 e0                	add    %ah,%al
  10144a:	40                   	inc    %eax
  10144b:	00 00                	add    %al,(%eax)
  10144d:	e0 60                	loopne 1014af <libvga_default_palette+0x14f>
  10144f:	00 00                	add    %al,(%eax)
  101451:	e0 80                	loopne 1013d3 <libvga_default_palette+0x73>
  101453:	00 00                	add    %al,(%eax)
  101455:	e0 a0                	loopne 1013f7 <libvga_default_palette+0x97>
  101457:	00 00                	add    %al,(%eax)
  101459:	e0 c0                	loopne 10141b <libvga_default_palette+0xbb>
  10145b:	00 00                	add    %al,(%eax)
  10145d:	e0 e0                	loopne 10143f <libvga_default_palette+0xdf>
  10145f:	00 40 00             	add    %al,0x0(%eax)
  101462:	00 00                	add    %al,(%eax)
  101464:	40                   	inc    %eax
  101465:	00 20                	add    %ah,(%eax)
  101467:	00 40 00             	add    %al,0x0(%eax)
  10146a:	40                   	inc    %eax
  10146b:	00 40 00             	add    %al,0x0(%eax)
  10146e:	60                   	pusha  
  10146f:	00 40 00             	add    %al,0x0(%eax)
  101472:	80 00 40             	addb   $0x40,(%eax)
  101475:	00 a0 00 40 00 c0    	add    %ah,-0x3fffc000(%eax)
  10147b:	00 40 00             	add    %al,0x0(%eax)
  10147e:	e0 00                	loopne 101480 <libvga_default_palette+0x120>
  101480:	40                   	inc    %eax
  101481:	20 00                	and    %al,(%eax)
  101483:	00 40 20             	add    %al,0x20(%eax)
  101486:	20 00                	and    %al,(%eax)
  101488:	40                   	inc    %eax
  101489:	20 40 00             	and    %al,0x0(%eax)
  10148c:	40                   	inc    %eax
  10148d:	20 60 00             	and    %ah,0x0(%eax)
  101490:	40                   	inc    %eax
  101491:	20 80 00 40 20 a0    	and    %al,-0x5fdfc000(%eax)
  101497:	00 40 20             	add    %al,0x20(%eax)
  10149a:	c0 00 40             	rolb   $0x40,(%eax)
  10149d:	20 e0                	and    %ah,%al
  10149f:	00 40 40             	add    %al,0x40(%eax)
  1014a2:	00 00                	add    %al,(%eax)
  1014a4:	40                   	inc    %eax
  1014a5:	40                   	inc    %eax
  1014a6:	20 00                	and    %al,(%eax)
  1014a8:	40                   	inc    %eax
  1014a9:	40                   	inc    %eax
  1014aa:	40                   	inc    %eax
  1014ab:	00 40 40             	add    %al,0x40(%eax)
  1014ae:	60                   	pusha  
  1014af:	00 40 40             	add    %al,0x40(%eax)
  1014b2:	80 00 40             	addb   $0x40,(%eax)
  1014b5:	40                   	inc    %eax
  1014b6:	a0 00 40 40 c0       	mov    0xc0404000,%al
  1014bb:	00 40 40             	add    %al,0x40(%eax)
  1014be:	e0 00                	loopne 1014c0 <libvga_default_palette+0x160>
  1014c0:	40                   	inc    %eax
  1014c1:	60                   	pusha  
  1014c2:	00 00                	add    %al,(%eax)
  1014c4:	40                   	inc    %eax
  1014c5:	60                   	pusha  
  1014c6:	20 00                	and    %al,(%eax)
  1014c8:	40                   	inc    %eax
  1014c9:	60                   	pusha  
  1014ca:	40                   	inc    %eax
  1014cb:	00 40 60             	add    %al,0x60(%eax)
  1014ce:	60                   	pusha  
  1014cf:	00 40 60             	add    %al,0x60(%eax)
  1014d2:	80 00 40             	addb   $0x40,(%eax)
  1014d5:	60                   	pusha  
  1014d6:	a0 00 40 60 c0       	mov    0xc0604000,%al
  1014db:	00 40 60             	add    %al,0x60(%eax)
  1014de:	e0 00                	loopne 1014e0 <libvga_default_palette+0x180>
  1014e0:	40                   	inc    %eax
  1014e1:	80 00 00             	addb   $0x0,(%eax)
  1014e4:	40                   	inc    %eax
  1014e5:	80 20 00             	andb   $0x0,(%eax)
  1014e8:	40                   	inc    %eax
  1014e9:	80 40 00 40          	addb   $0x40,0x0(%eax)
  1014ed:	80 60 00 40          	andb   $0x40,0x0(%eax)
  1014f1:	80 80 00 40 80 a0 00 	addb   $0x0,-0x5f7fc000(%eax)
  1014f8:	40                   	inc    %eax
  1014f9:	80 c0 00             	add    $0x0,%al
  1014fc:	40                   	inc    %eax
  1014fd:	80 e0 00             	and    $0x0,%al
  101500:	40                   	inc    %eax
  101501:	a0 00 00 40 a0       	mov    0xa0400000,%al
  101506:	20 00                	and    %al,(%eax)
  101508:	40                   	inc    %eax
  101509:	a0 40 00 40 a0       	mov    0xa0400040,%al
  10150e:	60                   	pusha  
  10150f:	00 40 a0             	add    %al,-0x60(%eax)
  101512:	80 00 40             	addb   $0x40,(%eax)
  101515:	a0 a0 00 40 a0       	mov    0xa04000a0,%al
  10151a:	c0 00 40             	rolb   $0x40,(%eax)
  10151d:	a0 e0 00 40 c0       	mov    0xc04000e0,%al
  101522:	00 00                	add    %al,(%eax)
  101524:	40                   	inc    %eax
  101525:	c0 20 00             	shlb   $0x0,(%eax)
  101528:	40                   	inc    %eax
  101529:	c0 40 00 40          	rolb   $0x40,0x0(%eax)
  10152d:	c0 60 00 40          	shlb   $0x40,0x0(%eax)
  101531:	c0 80 00 40 c0 a0 00 	rolb   $0x0,-0x5f3fc000(%eax)
  101538:	40                   	inc    %eax
  101539:	c0 c0 00             	rol    $0x0,%al
  10153c:	40                   	inc    %eax
  10153d:	c0 e0 00             	shl    $0x0,%al
  101540:	40                   	inc    %eax
  101541:	e0 00                	loopne 101543 <libvga_default_palette+0x1e3>
  101543:	00 40 e0             	add    %al,-0x20(%eax)
  101546:	20 00                	and    %al,(%eax)
  101548:	40                   	inc    %eax
  101549:	e0 40                	loopne 10158b <libvga_default_palette+0x22b>
  10154b:	00 40 e0             	add    %al,-0x20(%eax)
  10154e:	60                   	pusha  
  10154f:	00 40 e0             	add    %al,-0x20(%eax)
  101552:	80 00 40             	addb   $0x40,(%eax)
  101555:	e0 a0                	loopne 1014f7 <libvga_default_palette+0x197>
  101557:	00 40 e0             	add    %al,-0x20(%eax)
  10155a:	c0 00 40             	rolb   $0x40,(%eax)
  10155d:	e0 e0                	loopne 10153f <libvga_default_palette+0x1df>
  10155f:	00 80 00 00 00 80    	add    %al,-0x80000000(%eax)
  101565:	00 20                	add    %ah,(%eax)
  101567:	00 80 00 40 00 80    	add    %al,-0x7fffc000(%eax)
  10156d:	00 60 00             	add    %ah,0x0(%eax)
  101570:	80 00 80             	addb   $0x80,(%eax)
  101573:	00 80 00 a0 00 80    	add    %al,-0x7fff6000(%eax)
  101579:	00 c0                	add    %al,%al
  10157b:	00 80 00 e0 00 80    	add    %al,-0x7fff2000(%eax)
  101581:	20 00                	and    %al,(%eax)
  101583:	00 80 20 20 00 80    	add    %al,-0x7fffdfe0(%eax)
  101589:	20 40 00             	and    %al,0x0(%eax)
  10158c:	80 20 60             	andb   $0x60,(%eax)
  10158f:	00 80 20 80 00 80    	add    %al,-0x7fff7fe0(%eax)
  101595:	20 a0 00 80 20 c0    	and    %ah,-0x3fdf8000(%eax)
  10159b:	00 80 20 e0 00 80    	add    %al,-0x7fff1fe0(%eax)
  1015a1:	40                   	inc    %eax
  1015a2:	00 00                	add    %al,(%eax)
  1015a4:	80 40 20 00          	addb   $0x0,0x20(%eax)
  1015a8:	80 40 40 00          	addb   $0x0,0x40(%eax)
  1015ac:	80 40 60 00          	addb   $0x0,0x60(%eax)
  1015b0:	80 40 80 00          	addb   $0x0,-0x80(%eax)
  1015b4:	80 40 a0 00          	addb   $0x0,-0x60(%eax)
  1015b8:	80 40 c0 00          	addb   $0x0,-0x40(%eax)
  1015bc:	80 40 e0 00          	addb   $0x0,-0x20(%eax)
  1015c0:	80 60 00 00          	andb   $0x0,0x0(%eax)
  1015c4:	80 60 20 00          	andb   $0x0,0x20(%eax)
  1015c8:	80 60 40 00          	andb   $0x0,0x40(%eax)
  1015cc:	80 60 60 00          	andb   $0x0,0x60(%eax)
  1015d0:	80 60 80 00          	andb   $0x0,-0x80(%eax)
  1015d4:	80 60 a0 00          	andb   $0x0,-0x60(%eax)
  1015d8:	80 60 c0 00          	andb   $0x0,-0x40(%eax)
  1015dc:	80 60 e0 00          	andb   $0x0,-0x20(%eax)
  1015e0:	80 80 00 00 80 80 20 	addb   $0x20,-0x7f800000(%eax)
  1015e7:	00 80 80 40 00 80    	add    %al,-0x7fffbf80(%eax)
  1015ed:	80 60 00 80          	andb   $0x80,0x0(%eax)
  1015f1:	80 80 00 80 80 a0 00 	addb   $0x0,-0x5f7f8000(%eax)
  1015f8:	80 80 c0 00 80 80 e0 	addb   $0xe0,-0x7f7fff40(%eax)
  1015ff:	00 80 a0 00 00 80    	add    %al,-0x7fffff60(%eax)
  101605:	a0 20 00 80 a0       	mov    0xa0800020,%al
  10160a:	40                   	inc    %eax
  10160b:	00 80 a0 60 00 80    	add    %al,-0x7fff9f60(%eax)
  101611:	a0 80 00 80 a0       	mov    0xa0800080,%al
  101616:	a0 00 80 a0 c0       	mov    0xc0a08000,%al
  10161b:	00 80 a0 e0 00 80    	add    %al,-0x7fff1f60(%eax)
  101621:	c0 00 00             	rolb   $0x0,(%eax)
  101624:	80 c0 20             	add    $0x20,%al
  101627:	00 80 c0 40 00 80    	add    %al,-0x7fffbf40(%eax)
  10162d:	c0 60 00 80          	shlb   $0x80,0x0(%eax)
  101631:	c0 80 00 80 c0 a0 00 	rolb   $0x0,-0x5f3f8000(%eax)
  101638:	80 c0 c0             	add    $0xc0,%al
  10163b:	00 80 c0 e0 00 80    	add    %al,-0x7fff1f40(%eax)
  101641:	e0 00                	loopne 101643 <libvga_default_palette+0x2e3>
  101643:	00 80 e0 20 00 80    	add    %al,-0x7fffdf20(%eax)
  101649:	e0 40                	loopne 10168b <libvga_default_palette+0x32b>
  10164b:	00 80 e0 60 00 80    	add    %al,-0x7fff9f20(%eax)
  101651:	e0 80                	loopne 1015d3 <libvga_default_palette+0x273>
  101653:	00 80 e0 a0 00 80    	add    %al,-0x7fff5f20(%eax)
  101659:	e0 c0                	loopne 10161b <libvga_default_palette+0x2bb>
  10165b:	00 80 e0 e0 00 c0    	add    %al,-0x3fff1f20(%eax)
  101661:	00 00                	add    %al,(%eax)
  101663:	00 c0                	add    %al,%al
  101665:	00 20                	add    %ah,(%eax)
  101667:	00 c0                	add    %al,%al
  101669:	00 40 00             	add    %al,0x0(%eax)
  10166c:	c0 00 60             	rolb   $0x60,(%eax)
  10166f:	00 c0                	add    %al,%al
  101671:	00 80 00 c0 00 a0    	add    %al,-0x5fff4000(%eax)
  101677:	00 c0                	add    %al,%al
  101679:	00 c0                	add    %al,%al
  10167b:	00 c0                	add    %al,%al
  10167d:	00 e0                	add    %ah,%al
  10167f:	00 c0                	add    %al,%al
  101681:	20 00                	and    %al,(%eax)
  101683:	00 c0                	add    %al,%al
  101685:	20 20                	and    %ah,(%eax)
  101687:	00 c0                	add    %al,%al
  101689:	20 40 00             	and    %al,0x0(%eax)
  10168c:	c0 20 60             	shlb   $0x60,(%eax)
  10168f:	00 c0                	add    %al,%al
  101691:	20 80 00 c0 20 a0    	and    %al,-0x5fdf4000(%eax)
  101697:	00 c0                	add    %al,%al
  101699:	20 c0                	and    %al,%al
  10169b:	00 c0                	add    %al,%al
  10169d:	20 e0                	and    %ah,%al
  10169f:	00 c0                	add    %al,%al
  1016a1:	40                   	inc    %eax
  1016a2:	00 00                	add    %al,(%eax)
  1016a4:	c0 40 20 00          	rolb   $0x0,0x20(%eax)
  1016a8:	c0 40 40 00          	rolb   $0x0,0x40(%eax)
  1016ac:	c0 40 60 00          	rolb   $0x0,0x60(%eax)
  1016b0:	c0 40 80 00          	rolb   $0x0,-0x80(%eax)
  1016b4:	c0 40 a0 00          	rolb   $0x0,-0x60(%eax)
  1016b8:	c0 40 c0 00          	rolb   $0x0,-0x40(%eax)
  1016bc:	c0 40 e0 00          	rolb   $0x0,-0x20(%eax)
  1016c0:	c0 60 00 00          	shlb   $0x0,0x0(%eax)
  1016c4:	c0 60 20 00          	shlb   $0x0,0x20(%eax)
  1016c8:	c0 60 40 00          	shlb   $0x0,0x40(%eax)
  1016cc:	c0 60 60 00          	shlb   $0x0,0x60(%eax)
  1016d0:	c0 60 80 00          	shlb   $0x0,-0x80(%eax)
  1016d4:	c0 60 a0 00          	shlb   $0x0,-0x60(%eax)
  1016d8:	c0 60 c0 00          	shlb   $0x0,-0x40(%eax)
  1016dc:	c0 60 e0 00          	shlb   $0x0,-0x20(%eax)
  1016e0:	c0 80 00 00 c0 80 20 	rolb   $0x20,-0x7f400000(%eax)
  1016e7:	00 c0                	add    %al,%al
  1016e9:	80 40 00 c0          	addb   $0xc0,0x0(%eax)
  1016ed:	80 60 00 c0          	andb   $0xc0,0x0(%eax)
  1016f1:	80 80 00 c0 80 a0 00 	addb   $0x0,-0x5f7f4000(%eax)
  1016f8:	c0 80 c0 00 c0 80 e0 	rolb   $0xe0,-0x7f3fff40(%eax)
  1016ff:	00 c0                	add    %al,%al
  101701:	a0 00 00 c0 a0       	mov    0xa0c00000,%al
  101706:	20 00                	and    %al,(%eax)
  101708:	c0 a0 40 00 c0 a0 60 	shlb   $0x60,-0x5f3fffc0(%eax)
  10170f:	00 c0                	add    %al,%al
  101711:	a0 80 00 c0 a0       	mov    0xa0c00080,%al
  101716:	a0 00 c0 a0 c0       	mov    0xc0a0c000,%al
  10171b:	00 c0                	add    %al,%al
  10171d:	a0 e0 00 c0 c0       	mov    0xc0c000e0,%al
  101722:	00 00                	add    %al,(%eax)
  101724:	c0 c0 20             	rol    $0x20,%al
  101727:	00 c0                	add    %al,%al
  101729:	c0 40 00 c0          	rolb   $0xc0,0x0(%eax)
  10172d:	c0 60 00 c0          	shlb   $0xc0,0x0(%eax)
  101731:	c0 80 00 c0 c0 a0 00 	rolb   $0x0,-0x5f3f4000(%eax)
  101738:	f0 fb                	lock sti 
  10173a:	ff 00                	incl   (%eax)
  10173c:	a4                   	movsb  %ds:(%esi),%es:(%edi)
  10173d:	a0 a0 00 80 80       	mov    0x808000a0,%al
  101742:	80 00 00             	addb   $0x0,(%eax)
  101745:	00 ff                	add    %bh,%bh
  101747:	00 00                	add    %al,(%eax)
  101749:	ff 00                	incl   (%eax)
  10174b:	00 00                	add    %al,(%eax)
  10174d:	ff                   	(bad)  
  10174e:	ff 00                	incl   (%eax)
  101750:	ff 00                	incl   (%eax)
  101752:	00 00                	add    %al,(%eax)
  101754:	ff 00                	incl   (%eax)
  101756:	ff 00                	incl   (%eax)
  101758:	ff                   	(bad)  
  101759:	ff 00                	incl   (%eax)
  10175b:	00 ff                	add    %bh,%bh
  10175d:	ff                   	(bad)  
  10175e:	ff 00                	incl   (%eax)

00101760 <libvga_regs_80x25xtext>:
  101760:	67 03 00             	add    (%bx,%si),%eax
  101763:	03 00                	add    (%eax),%eax
  101765:	02 5f 4f             	add    0x4f(%edi),%bl
  101768:	50                   	push   %eax
  101769:	82                   	(bad)  
  10176a:	55                   	push   %ebp
  10176b:	81 bf 1f 00 4f 0d 0e 	cmpl   $0xe,0xd4f001f(%edi)
  101772:	00 00 00 
  101775:	50                   	push   %eax
  101776:	9c                   	pushf  
  101777:	0e                   	push   %cs
  101778:	8f 28                	(bad)  
  10177a:	1f                   	pop    %ds
  10177b:	96                   	xchg   %eax,%esi
  10177c:	b9 a3 ff 00 00       	mov    $0xffa3,%ecx
  101781:	00 00                	add    %al,(%eax)
  101783:	00 10                	add    %dl,(%eax)
  101785:	0e                   	push   %cs
  101786:	00 ff                	add    %bh,%bh
  101788:	00 01                	add    %al,(%ecx)
  10178a:	02 03                	add    (%ebx),%al
  10178c:	04 05                	add    $0x5,%al
  10178e:	14 07                	adc    $0x7,%al
  101790:	38 39                	cmp    %bh,(%ecx)
  101792:	3a 3b                	cmp    (%ebx),%bh
  101794:	3c 3d                	cmp    $0x3d,%al
  101796:	3e 3f                	ds aas 
  101798:	0c 00                	or     $0x0,%al
  10179a:	0f 08                	invd   
  10179c:	00 00                	add    %al,(%eax)
	...

001017a0 <libvga_regs_320x200x256>:
  1017a0:	63 03                	arpl   %ax,(%ebx)
  1017a2:	01 0f                	add    %ecx,(%edi)
  1017a4:	00 0e                	add    %cl,(%esi)
  1017a6:	5f                   	pop    %edi
  1017a7:	4f                   	dec    %edi
  1017a8:	50                   	push   %eax
  1017a9:	82                   	(bad)  
  1017aa:	54                   	push   %esp
  1017ab:	80 bf 1f 00 41 00 00 	cmpb   $0x0,0x41001f(%edi)
  1017b2:	00 00                	add    %al,(%eax)
  1017b4:	00 00                	add    %al,(%eax)
  1017b6:	9c                   	pushf  
  1017b7:	0e                   	push   %cs
  1017b8:	8f 28 40 96 b9 a3 ff 	vpmacswd %xmm0,0xffa3(%ecx),%xmm7,%xmm15
  1017bf:	00 00 00 
  1017c2:	00 00                	add    %al,(%eax)
  1017c4:	40                   	inc    %eax
  1017c5:	05 0f ff 00 01       	add    $0x100ff0f,%eax
  1017ca:	02 03                	add    (%ebx),%al
  1017cc:	04 05                	add    $0x5,%al
  1017ce:	06                   	push   %es
  1017cf:	07                   	pop    %es
  1017d0:	08 09                	or     %cl,(%ecx)
  1017d2:	0a 0b                	or     (%ebx),%cl
  1017d4:	0c 0d                	or     $0xd,%al
  1017d6:	0e                   	push   %cs
  1017d7:	0f 41 00             	cmovno (%eax),%eax
  1017da:	0f 00 00             	sldt   (%eax)
  1017dd:	00 00                	add    %al,(%eax)
	...

001017e0 <exception_messages>:
  1017e0:	ed                   	in     (%dx),%eax
  1017e1:	10 10                	adc    %dl,(%eax)
  1017e3:	00 08                	add    %cl,(%eax)
  1017e5:	11 10                	adc    %edx,(%eax)
  1017e7:	00 18                	add    %bl,(%eax)
  1017e9:	11 10                	adc    %edx,(%eax)
  1017eb:	00 35 11 10 00 4a    	add    %dh,0x4a001011
  1017f1:	11 10                	adc    %edx,(%eax)
  1017f3:	00 6b 11             	add    %ch,0x11(%ebx)
  1017f6:	10 00                	adc    %al,(%eax)
  1017f8:	83 11 10             	adcl   $0x10,(%ecx)
  1017fb:	00 9c 11 10 00 b2 11 	add    %bl,0x11b20010(%ecx,%edx,1)
  101802:	10 00                	adc    %al,(%eax)
  101804:	c9                   	leave  
  101805:	11 10                	adc    %edx,(%eax)
  101807:	00 ef                	add    %ch,%bh
  101809:	11 10                	adc    %edx,(%eax)
  10180b:	00 01                	add    %al,(%ecx)
  10180d:	12 10                	adc    (%eax),%dl
  10180f:	00 1f                	add    %bl,(%edi)
  101811:	12 10                	adc    (%eax),%dl
  101813:	00 35 12 10 00 58    	add    %dh,0x58001012
  101819:	12 10                	adc    (%eax),%dl
  10181b:	00 6d 12             	add    %ch,0x12(%ebp)
  10181e:	10 00                	adc    %al,(%eax)
  101820:	89 12                	mov    %edx,(%edx)
  101822:	10 00                	adc    %al,(%eax)
  101824:	a5                   	movsl  %ds:(%esi),%es:(%edi)
  101825:	12 10                	adc    (%eax),%dl
  101827:	00 bf 12 10 00 d7    	add    %bh,-0x28ffefee(%edi)
  10182d:	12 10                	adc    (%eax),%dl
  10182f:	00 d7                	add    %dl,%bh
  101831:	12 10                	adc    (%eax),%dl
  101833:	00 d7                	add    %dl,%bh
  101835:	12 10                	adc    (%eax),%dl
  101837:	00 d7                	add    %dl,%bh
  101839:	12 10                	adc    (%eax),%dl
  10183b:	00 d7                	add    %dl,%bh
  10183d:	12 10                	adc    (%eax),%dl
  10183f:	00 d7                	add    %dl,%bh
  101841:	12 10                	adc    (%eax),%dl
  101843:	00 d7                	add    %dl,%bh
  101845:	12 10                	adc    (%eax),%dl
  101847:	00 d7                	add    %dl,%bh
  101849:	12 10                	adc    (%eax),%dl
  10184b:	00 d7                	add    %dl,%bh
  10184d:	12 10                	adc    (%eax),%dl
  10184f:	00 d7                	add    %dl,%bh
  101851:	12 10                	adc    (%eax),%dl
  101853:	00 d7                	add    %dl,%bh
  101855:	12 10                	adc    (%eax),%dl
  101857:	00 d7                	add    %dl,%bh
  101859:	12 10                	adc    (%eax),%dl
	...

0010185c <video_memory>:
  10185c:	00                   	.byte 0x0
  10185d:	80 0b 00             	orb    $0x0,(%ebx)

Disassembly of section .bss:

00101860 <libvga_txt_mode_font>:
	...

00111260 <gdt_ptr>:
	...

00111268 <gdt_entries>:
	...

00111280 <idt_ptr>:
	...

001112a0 <idt_entries>:
	...

00111aa0 <irq_routines>:
	...

00111ae0 <timer_ticks>:
  111ae0:	00 00                	add    %al,(%eax)
	...

00111ae4 <cursor_y>:
	...

00111ae5 <cursor_x>:
	...

Disassembly of section .debug_info:

00000000 <.debug_info>:
       0:	50                   	push   %eax
       1:	02 00                	add    (%eax),%al
       3:	00 04 00             	add    %al,(%eax,%eax,1)
       6:	00 00                	add    %al,(%eax)
       8:	00 00                	add    %al,(%eax)
       a:	04 01                	add    $0x1,%al
       c:	1c 01                	sbb    $0x1,%al
       e:	00 00                	add    %al,(%eax)
      10:	0c 6b                	or     $0x6b,%al
      12:	2e 63 00             	arpl   %ax,%cs:(%eax)
      15:	08 00                	or     %al,(%eax)
      17:	00 00                	add    %al,(%eax)
      19:	8c 00                	mov    %es,(%eax)
      1b:	10 00                	adc    %al,(%eax)
      1d:	2d 00 00 00 00       	sub    $0x0,%eax
      22:	00 00                	add    %al,(%eax)
      24:	00 02                	add    %al,(%edx)
      26:	04 05                	add    $0x5,%al
      28:	69 6e 74 00 03 04 07 	imul   $0x7040300,0x74(%esi),%ebp
      2f:	0f 01 00             	sgdtl  (%eax)
      32:	00 03                	add    %al,(%ebx)
      34:	04 05                	add    $0x5,%al
      36:	cf                   	iret   
      37:	01 00                	add    %eax,(%eax)
      39:	00 03                	add    %al,(%ebx)
      3b:	01 08                	add    %ecx,(%eax)
      3d:	e4 00                	in     $0x0,%al
      3f:	00 00                	add    %al,(%eax)
      41:	03 01                	add    (%ecx),%eax
      43:	06                   	push   %es
      44:	e6 00                	out    %al,$0x0
      46:	00 00                	add    %al,(%eax)
      48:	03 02                	add    (%edx),%eax
      4a:	07                   	pop    %es
      4b:	46                   	inc    %esi
      4c:	00 00                	add    %al,(%eax)
      4e:	00 03                	add    %al,(%ebx)
      50:	02 05 f1 01 00 00    	add    0x1f1,%al
      56:	03 08                	add    (%eax),%ecx
      58:	07                   	pop    %es
      59:	05 01 00 00 03       	add    $0x3000001,%eax
      5e:	08 05 ca 01 00 00    	or     %al,0x1ca
      64:	03 04 07             	add    (%edi,%eax,1),%eax
      67:	0a 01                	or     (%ecx),%al
      69:	00 00                	add    %al,(%eax)
      6b:	03 01                	add    (%ecx),%eax
      6d:	06                   	push   %es
      6e:	ed                   	in     (%dx),%eax
      6f:	00 00                	add    %al,(%eax)
      71:	00 04 10             	add    %al,(%eax,%edx,1)
      74:	02 21                	add    (%ecx),%ah
      76:	ab                   	stos   %eax,%es:(%edi)
      77:	00 00                	add    %al,(%eax)
      79:	00 05 11 02 00 00    	add    %al,0x211
      7f:	02 22                	add    (%edx),%ah
      81:	2c 00                	sub    $0x0,%al
      83:	00 00                	add    %al,(%eax)
      85:	00 05 c2 01 00 00    	add    %al,0x1c2
      8b:	02 23                	add    (%ebx),%ah
      8d:	2c 00                	sub    $0x0,%al
      8f:	00 00                	add    %al,(%eax)
      91:	04 05                	add    $0x5,%al
      93:	df 00                	fild   (%eax)
      95:	00 00                	add    %al,(%eax)
      97:	02 24 2c             	add    (%esp,%ebp,1),%ah
      9a:	00 00                	add    %al,(%eax)
      9c:	00 08                	add    %cl,(%eax)
      9e:	05 3d 00 00 00       	add    $0x3d,%eax
      a3:	02 25 2c 00 00 00    	add    0x2c,%ah
      a9:	0c 00                	or     $0x0,%al
      ab:	06                   	push   %es
      ac:	59                   	pop    %ecx
      ad:	00 00                	add    %al,(%eax)
      af:	00 02                	add    %al,(%edx)
      b1:	26 72 00             	es jb  b4 <multiboot_header-0xfffcc>
      b4:	00 00                	add    %al,(%eax)
      b6:	04 10                	add    $0x10,%al
      b8:	02 28                	add    (%eax),%ch
      ba:	ef                   	out    %eax,(%dx)
      bb:	00 00                	add    %al,(%eax)
      bd:	00 07                	add    %al,(%edi)
      bf:	6e                   	outsb  %ds:(%esi),(%dx)
      c0:	75 6d                	jne    12f <multiboot_header-0xfff51>
      c2:	00 02                	add    %al,(%edx)
      c4:	29 2c 00             	sub    %ebp,(%eax,%eax,1)
      c7:	00 00                	add    %al,(%eax)
      c9:	00 05 14 02 00 00    	add    %al,0x214
      cf:	02 2a                	add    (%edx),%ch
      d1:	2c 00                	sub    $0x0,%al
      d3:	00 00                	add    %al,(%eax)
      d5:	04 05                	add    $0x5,%al
      d7:	df 00                	fild   (%eax)
      d9:	00 00                	add    %al,(%eax)
      db:	02 2b                	add    (%ebx),%ch
      dd:	2c 00                	sub    $0x0,%al
      df:	00 00                	add    %al,(%eax)
      e1:	08 05 d8 01 00 00    	or     %al,0x1d8
      e7:	02 2c 2c             	add    (%esp,%ebp,1),%ch
      ea:	00 00                	add    %al,(%eax)
      ec:	00 0c 00             	add    %cl,(%eax,%eax,1)
      ef:	06                   	push   %es
      f0:	b6 00                	mov    $0x0,%dh
      f2:	00 00                	add    %al,(%eax)
      f4:	02 2d b6 00 00 00    	add    0xb6,%ch
      fa:	08 10                	or     %dl,(%eax)
      fc:	02 38                	add    (%eax),%bh
      fe:	19 01                	sbb    %eax,(%ecx)
     100:	00 00                	add    %al,(%eax)
     102:	09 79 00             	or     %edi,0x0(%ecx)
     105:	00 00                	add    %al,(%eax)
     107:	02 39                	add    (%ecx),%bh
     109:	ab                   	stos   %eax,%es:(%edi)
     10a:	00 00                	add    %al,(%eax)
     10c:	00 09                	add    %cl,(%ecx)
     10e:	ae                   	scas   %es:(%edi),%al
     10f:	00 00                	add    %al,(%eax)
     111:	00 02                	add    %al,(%edx)
     113:	3a ef                	cmp    %bh,%ch
     115:	00 00                	add    %al,(%eax)
     117:	00 00                	add    %al,(%eax)
     119:	04 34                	add    $0x34,%al
     11b:	02 2f                	add    (%edi),%ch
     11d:	98                   	cwtl   
     11e:	01 00                	add    %eax,(%eax)
     120:	00 05 96 04 00 00    	add    %al,0x496
     126:	02 30                	add    (%eax),%dh
     128:	2c 00                	sub    $0x0,%al
     12a:	00 00                	add    %al,(%eax)
     12c:	00 05 19 02 00 00    	add    %al,0x219
     132:	02 31                	add    (%ecx),%dh
     134:	2c 00                	sub    $0x0,%al
     136:	00 00                	add    %al,(%eax)
     138:	04 05                	add    $0x5,%al
     13a:	07                   	pop    %es
     13b:	02 00                	add    (%eax),%al
     13d:	00 02                	add    %al,(%edx)
     13f:	32 2c 00             	xor    (%eax,%eax,1),%ch
     142:	00 00                	add    %al,(%eax)
     144:	08 05 fb 01 00 00    	or     %al,0x1fb
     14a:	02 33                	add    (%ebx),%dh
     14c:	2c 00                	sub    $0x0,%al
     14e:	00 00                	add    %al,(%eax)
     150:	0c 05                	or     $0x5,%al
     152:	e9 01 00 00 02       	jmp    2000158 <cursor_x+0x1eee673>
     157:	34 2c                	xor    $0x2c,%al
     159:	00 00                	add    %al,(%eax)
     15b:	00 10                	add    %dl,(%eax)
     15d:	05 de 01 00 00       	add    $0x1de,%eax
     162:	02 35 2c 00 00 00    	add    0x2c,%dh
     168:	14 05                	adc    $0x5,%al
     16a:	a4                   	movsb  %ds:(%esi),%es:(%edi)
     16b:	00 00                	add    %al,(%eax)
     16d:	00 02                	add    %al,(%edx)
     16f:	36 2c 00             	ss sub $0x0,%al
     172:	00 00                	add    %al,(%eax)
     174:	18 07                	sbb    %al,(%edi)
     176:	75 00                	jne    178 <multiboot_header-0xfff08>
     178:	02 3b                	add    (%ebx),%bh
     17a:	fa                   	cli    
     17b:	00 00                	add    %al,(%eax)
     17d:	00 1c 05 6d 00 00 00 	add    %bl,0x6d(,%eax,1)
     184:	02 3d 2c 00 00 00    	add    0x2c,%bh
     18a:	2c 05                	sub    $0x5,%al
     18c:	da 00                	fiaddl (%eax)
     18e:	00 00                	add    %al,(%eax)
     190:	02 3e                	add    (%esi),%bh
     192:	2c 00                	sub    $0x0,%al
     194:	00 00                	add    %al,(%eax)
     196:	30 00                	xor    %al,(%eax)
     198:	06                   	push   %es
     199:	93                   	xchg   %eax,%ebx
     19a:	00 00                	add    %al,(%eax)
     19c:	00 02                	add    %al,(%edx)
     19e:	3f                   	aas    
     19f:	19 01                	sbb    %eax,(%ecx)
     1a1:	00 00                	add    %al,(%eax)
     1a3:	0a 36                	or     (%esi),%dh
     1a5:	00 00                	add    %al,(%eax)
     1a7:	00 01                	add    %al,(%ecx)
     1a9:	23 8c 00 10 00 2d 00 	and    0x2d0010(%eax,%eax,1),%ecx
     1b0:	00 00                	add    %al,(%eax)
     1b2:	01 9c 0b 02 00 00 0b 	add    %ebx,0xb000002(%ebx,%ecx,1)
     1b9:	23 02                	and    (%edx),%eax
     1bb:	00 00                	add    %al,(%eax)
     1bd:	01 23                	add    %esp,(%ebx)
     1bf:	64 00 00             	add    %al,%fs:(%eax)
     1c2:	00 02                	add    %al,(%edx)
     1c4:	91                   	xchg   %eax,%ecx
     1c5:	00 0b                	add    %cl,(%ebx)
     1c7:	f2 00 00             	repnz add %al,(%eax)
     1ca:	00 01                	add    %al,(%ecx)
     1cc:	23 0b                	and    (%ebx),%ecx
     1ce:	02 00                	add    (%eax),%al
     1d0:	00 02                	add    %al,(%edx)
     1d2:	91                   	xchg   %eax,%ecx
     1d3:	04 0c                	add    $0xc,%al
     1d5:	97                   	xchg   %eax,%edi
     1d6:	00 10                	add    %dl,(%eax)
     1d8:	00 11                	add    %dl,(%ecx)
     1da:	02 00                	add    (%eax),%al
     1dc:	00 0c 9c             	add    %cl,(%esp,%ebx,4)
     1df:	00 10                	add    %dl,(%eax)
     1e1:	00 1c 02             	add    %bl,(%edx,%eax,1)
     1e4:	00 00                	add    %al,(%eax)
     1e6:	0c a1                	or     $0xa1,%al
     1e8:	00 10                	add    %dl,(%eax)
     1ea:	00 27                	add    %ah,(%edi)
     1ec:	02 00                	add    (%eax),%al
     1ee:	00 0c a6             	add    %cl,(%esi,%eiz,4)
     1f1:	00 10                	add    %dl,(%eax)
     1f3:	00 32                	add    %dh,(%edx)
     1f5:	02 00                	add    (%eax),%al
     1f7:	00 0c ac             	add    %cl,(%esp,%ebp,4)
     1fa:	00 10                	add    %dl,(%eax)
     1fc:	00 3d 02 00 00 0c    	add    %bh,0xc000002
     202:	b1 00                	mov    $0x0,%cl
     204:	10 00                	adc    %al,(%eax)
     206:	48                   	dec    %eax
     207:	02 00                	add    (%eax),%al
     209:	00 00                	add    %al,(%eax)
     20b:	0d 04 98 01 00       	or     $0x19804,%eax
     210:	00 0e                	add    %cl,(%esi)
	...
     21a:	03 08                	add    (%eax),%ecx
     21c:	0e                   	push   %cs
     21d:	d1 00                	roll   (%eax)
     21f:	00 00                	add    %al,(%eax)
     221:	d1 00                	roll   (%eax)
     223:	00 00                	add    %al,(%eax)
     225:	04 0c                	add    $0xc,%al
     227:	0e                   	push   %cs
     228:	21 00                	and    %eax,(%eax)
     22a:	00 00                	add    %al,(%eax)
     22c:	21 00                	and    %eax,(%eax)
     22e:	00 00                	add    %al,(%eax)
     230:	05 07 0e 2a 00       	add    $0x2a0e07,%eax
     235:	00 00                	add    %al,(%eax)
     237:	2a 00                	sub    (%eax),%al
     239:	00 00                	add    %al,(%eax)
     23b:	06                   	push   %es
     23c:	21 0e                	and    %ecx,(%esi)
     23e:	f7 00 00 00 f7 00    	testl  $0xf70000,(%eax)
     244:	00 00                	add    %al,(%eax)
     246:	07                   	pop    %es
     247:	0a 0e                	or     (%esi),%cl
     249:	82                   	(bad)  
     24a:	00 00                	add    %al,(%eax)
     24c:	00 82 00 00 00 08    	add    %al,0x8000000(%edx)
     252:	09 00                	or     %eax,(%eax)
     254:	6c                   	insb   (%dx),%es:(%edi)
     255:	03 00                	add    (%eax),%eax
     257:	00 04 00             	add    %al,(%eax,%eax,1)
     25a:	cd 00                	int    $0x0
     25c:	00 00                	add    %al,(%eax)
     25e:	04 01                	add    $0x1,%al
     260:	1c 01                	sbb    $0x1,%al
     262:	00 00                	add    %al,(%eax)
     264:	0c 29                	or     $0x29,%al
     266:	02 00                	add    (%eax),%al
     268:	00 08                	add    %cl,(%eax)
     26a:	00 00                	add    %al,(%eax)
     26c:	00 c2                	add    %al,%dl
     26e:	00 10                	add    %dl,(%eax)
     270:	00 68 02             	add    %ch,0x2(%eax)
     273:	00 00                	add    %al,(%eax)
     275:	9d                   	popf   
     276:	00 00                	add    %al,(%eax)
     278:	00 02                	add    %al,(%edx)
     27a:	04 05                	add    $0x5,%al
     27c:	69 6e 74 00 03 32 02 	imul   $0x2320300,0x74(%esi),%ebp
     283:	00 00                	add    %al,(%eax)
     285:	02 d8                	add    %al,%bl
     287:	37                   	aaa    
     288:	00 00                	add    %al,(%eax)
     28a:	00 04 04             	add    %al,(%esp,%eax,1)
     28d:	07                   	pop    %es
     28e:	0f 01 00             	sgdtl  (%eax)
     291:	00 04 04             	add    %al,(%esp,%eax,1)
     294:	05 cf 01 00 00       	add    $0x1cf,%eax
     299:	04 01                	add    $0x1,%al
     29b:	08 e4                	or     %ah,%ah
     29d:	00 00                	add    %al,(%eax)
     29f:	00 04 01             	add    %al,(%ecx,%eax,1)
     2a2:	06                   	push   %es
     2a3:	e6 00                	out    %al,$0x0
     2a5:	00 00                	add    %al,(%eax)
     2a7:	04 02                	add    $0x2,%al
     2a9:	07                   	pop    %es
     2aa:	46                   	inc    %esi
     2ab:	00 00                	add    %al,(%eax)
     2ad:	00 04 02             	add    %al,(%edx,%eax,1)
     2b0:	05 f1 01 00 00       	add    $0x1f1,%eax
     2b5:	04 08                	add    $0x8,%al
     2b7:	07                   	pop    %es
     2b8:	05 01 00 00 04       	add    $0x4000001,%eax
     2bd:	08 05 ca 01 00 00    	or     %al,0x1ca
     2c3:	05 fe 02 00 00       	add    $0x2fe,%eax
     2c8:	01 ca                	add    %ecx,%edx
     2ca:	c2 00 10             	ret    $0x1000
     2cd:	00 6f 00             	add    %ch,0x0(%edi)
     2d0:	00 00                	add    %al,(%eax)
     2d2:	01 9c dc 00 00 00 06 	add    %ebx,0x6000000(%esp,%ebx,8)
     2d9:	ba 02 00 00 01       	mov    $0x1000002,%edx
     2de:	ca dc 00             	lret   $0xdc
     2e1:	00 00                	add    %al,(%eax)
     2e3:	02 91 00 06 14 02    	add    0x2140600(%ecx),%dl
     2e9:	00 00                	add    %al,(%eax)
     2eb:	01 ca                	add    %ecx,%edx
     2ed:	2c 00                	sub    $0x0,%al
     2ef:	00 00                	add    %al,(%eax)
     2f1:	02 91 04 07 00 00    	add    0x704(%ecx),%dl
     2f7:	00 00                	add    %al,(%eax)
     2f9:	d2 00                	rolb   %cl,(%eax)
     2fb:	00 00                	add    %al,(%eax)
     2fd:	08 69 00             	or     %ch,0x0(%ecx)
     300:	01 cd                	add    %ecx,%ebp
     302:	2c 00                	sub    $0x0,%al
     304:	00 00                	add    %al,(%eax)
     306:	00 00                	add    %al,(%eax)
     308:	00 00                	add    %al,(%eax)
     30a:	09 f8                	or     %edi,%eax
     30c:	00 10                	add    %dl,(%eax)
     30e:	00 59 03             	add    %bl,0x3(%ecx)
     311:	00 00                	add    %al,(%eax)
     313:	09 0e                	or     %ecx,(%esi)
     315:	01 10                	add    %edx,(%eax)
     317:	00 59 03             	add    %bl,0x3(%ecx)
     31a:	00 00                	add    %al,(%eax)
     31c:	09 25 01 10 00 59    	or     %esp,0x59001001
     322:	03 00                	add    (%eax),%eax
     324:	00 00                	add    %al,(%eax)
     326:	09 da                	or     %ebx,%edx
     328:	00 10                	add    %dl,(%eax)
     32a:	00 59 03             	add    %bl,0x3(%ecx)
     32d:	00 00                	add    %al,(%eax)
     32f:	00 0a                	add    %cl,(%edx)
     331:	04 37                	add    $0x37,%al
     333:	00 00                	add    %al,(%eax)
     335:	00 0b                	add    %cl,(%ebx)
     337:	e3 02                	jecxz  33b <multiboot_header-0xffd45>
     339:	00 00                	add    %al,(%eax)
     33b:	01 95 31 01 10 00    	add    %edx,0x100131(%ebp)
     341:	7b 01                	jnp    344 <multiboot_header-0xffd3c>
     343:	00 00                	add    %al,(%eax)
     345:	01 9c d5 01 00 00 0c 	add    %ebx,0xc000001(%ebp,%edx,8)
     34c:	f0 02 00             	lock add (%eax),%al
     34f:	00 01                	add    %al,(%ecx)
     351:	95                   	xchg   %eax,%ebp
     352:	d5 01                	aad    $0x1
     354:	00 00                	add    %al,(%eax)
     356:	37                   	aaa    
     357:	00 00                	add    %al,(%eax)
     359:	00 08                	add    %cl,(%eax)
     35b:	69 00 01 97 37 00    	imul   $0x379701,(%eax),%eax
     361:	00 00                	add    %al,(%eax)
     363:	fd                   	std    
     364:	00 00                	add    %al,(%eax)
     366:	00 08                	add    %cl,(%eax)
     368:	61                   	popa   
     369:	00 01                	add    %al,(%ecx)
     36b:	98                   	cwtl   
     36c:	37                   	aaa    
     36d:	00 00                	add    %al,(%eax)
     36f:	00 aa 01 00 00 09    	add    %ch,0x9000001(%edx)
     375:	4a                   	dec    %edx
     376:	01 10                	add    %edx,(%eax)
     378:	00 59 03             	add    %bl,0x3(%ecx)
     37b:	00 00                	add    %al,(%eax)
     37d:	09 5a 01             	or     %ebx,0x1(%edx)
     380:	10 00                	adc    %al,(%eax)
     382:	59                   	pop    %ecx
     383:	03 00                	add    (%eax),%eax
     385:	00 09                	add    %cl,(%ecx)
     387:	6d                   	insl   (%dx),%es:(%edi)
     388:	01 10                	add    %edx,(%eax)
     38a:	00 59 03             	add    %bl,0x3(%ecx)
     38d:	00 00                	add    %al,(%eax)
     38f:	09 83 01 10 00 59    	or     %eax,0x59001001(%ebx)
     395:	03 00                	add    (%eax),%eax
     397:	00 09                	add    %cl,(%ecx)
     399:	8f 01                	popl   (%ecx)
     39b:	10 00                	adc    %al,(%eax)
     39d:	64 03 00             	add    %fs:(%eax),%eax
     3a0:	00 09                	add    %cl,(%ecx)
     3a2:	a2 01 10 00 59       	mov    %al,0x59001001
     3a7:	03 00                	add    (%eax),%eax
     3a9:	00 09                	add    %cl,(%ecx)
     3ab:	b2 01                	mov    $0x1,%dl
     3ad:	10 00                	adc    %al,(%eax)
     3af:	59                   	pop    %ecx
     3b0:	03 00                	add    (%eax),%eax
     3b2:	00 09                	add    %cl,(%ecx)
     3b4:	be 01 10 00 64       	mov    $0x64001001,%esi
     3b9:	03 00                	add    (%eax),%eax
     3bb:	00 09                	add    %cl,(%ecx)
     3bd:	ce                   	into   
     3be:	01 10                	add    %edx,(%eax)
     3c0:	00 59 03             	add    %bl,0x3(%ecx)
     3c3:	00 00                	add    %al,(%eax)
     3c5:	09 e6                	or     %esp,%esi
     3c7:	01 10                	add    %edx,(%eax)
     3c9:	00 59 03             	add    %bl,0x3(%ecx)
     3cc:	00 00                	add    %al,(%eax)
     3ce:	09 f9                	or     %edi,%ecx
     3d0:	01 10                	add    %edx,(%eax)
     3d2:	00 59 03             	add    %bl,0x3(%ecx)
     3d5:	00 00                	add    %al,(%eax)
     3d7:	09 10                	or     %edx,(%eax)
     3d9:	02 10                	add    (%eax),%dl
     3db:	00 59 03             	add    %bl,0x3(%ecx)
     3de:	00 00                	add    %al,(%eax)
     3e0:	09 23                	or     %esp,(%ebx)
     3e2:	02 10                	add    (%eax),%dl
     3e4:	00 59 03             	add    %bl,0x3(%ecx)
     3e7:	00 00                	add    %al,(%eax)
     3e9:	09 3a                	or     %edi,(%edx)
     3eb:	02 10                	add    (%eax),%dl
     3ed:	00 64 03 00          	add    %ah,0x0(%ebx,%eax,1)
     3f1:	00 09                	add    %cl,(%ecx)
     3f3:	4a                   	dec    %edx
     3f4:	02 10                	add    (%eax),%dl
     3f6:	00 59 03             	add    %bl,0x3(%ecx)
     3f9:	00 00                	add    %al,(%eax)
     3fb:	09 5d 02             	or     %ebx,0x2(%ebp)
     3fe:	10 00                	adc    %al,(%eax)
     400:	59                   	pop    %ecx
     401:	03 00                	add    (%eax),%eax
     403:	00 09                	add    %cl,(%ecx)
     405:	72 02                	jb     409 <multiboot_header-0xffc77>
     407:	10 00                	adc    %al,(%eax)
     409:	64 03 00             	add    %fs:(%eax),%eax
     40c:	00 09                	add    %cl,(%ecx)
     40e:	80 02 10             	addb   $0x10,(%edx)
     411:	00 59 03             	add    %bl,0x3(%ecx)
     414:	00 00                	add    %al,(%eax)
     416:	09 91 02 10 00 59    	or     %edx,0x59001002(%ecx)
     41c:	03 00                	add    (%eax),%eax
     41e:	00 09                	add    %cl,(%ecx)
     420:	a2 02 10 00 6f       	mov    %al,0x6f001002
     425:	00 00                	add    %al,(%eax)
     427:	00 00                	add    %al,(%eax)
     429:	0a 04 45 00 00 00 0d 	or     0xd000000(,%eax,2),%al
     430:	9e                   	sahf   
     431:	02 00                	add    (%eax),%al
     433:	00 01                	add    %al,(%ecx)
     435:	d4 16                	aam    $0x16
     437:	02 00                	add    (%eax),%al
     439:	00 ac 02 10 00 29 00 	add    %ch,0x290010(%edx,%eax,1)
     440:	00 00                	add    %al,(%eax)
     442:	01 9c 16 02 00 00 0e 	add    %ebx,0xe000002(%esi,%edx,1)
     449:	7d 02                	jge    44d <multiboot_header-0xffc33>
     44b:	00 00                	add    %al,(%eax)
     44d:	01 d6                	add    %edx,%esi
     44f:	37                   	aaa    
     450:	00 00                	add    %al,(%eax)
     452:	00 d2                	add    %dl,%dl
     454:	01 00                	add    %eax,(%eax)
     456:	00 09                	add    %cl,(%ecx)
     458:	be 02 10 00 59       	mov    $0x59001002,%esi
     45d:	03 00                	add    (%eax),%eax
     45f:	00 09                	add    %cl,(%ecx)
     461:	ca 02 10             	lret   $0x1002
     464:	00 64 03 00          	add    %ah,0x0(%ebx,%eax,1)
     468:	00 00                	add    %al,(%eax)
     46a:	0a 04 1c             	or     (%esp,%ebx,1),%al
     46d:	02 00                	add    (%eax),%al
     46f:	00 04 01             	add    %al,(%ecx,%eax,1)
     472:	06                   	push   %es
     473:	ed                   	in     (%dx),%eax
     474:	00 00                	add    %al,(%eax)
     476:	00 05 67 02 00 00    	add    %al,0x267
     47c:	01 e8                	add    %ebp,%eax
     47e:	d5 02                	aad    $0x2
     480:	10 00                	adc    %al,(%eax)
     482:	2b 00                	sub    (%eax),%eax
     484:	00 00                	add    %al,(%eax)
     486:	01 9c 81 02 00 00 0f 	add    %ebx,0xf000002(%ecx,%eax,4)
     48d:	de 02                	fiadd  (%edx)
     48f:	00 00                	add    %al,(%eax)
     491:	01 ed                	add    %ebp,%ebp
     493:	16                   	push   %ss
     494:	02 00                	add    (%eax),%al
     496:	00 01                	add    %al,(%ecx)
     498:	50                   	push   %eax
     499:	10 ea                	adc    %ch,%dl
     49b:	02 10                	add    (%eax),%dl
     49d:	00 14 00             	add    %dl,(%eax,%eax,1)
     4a0:	00 00                	add    %al,(%eax)
     4a2:	60                   	pusha  
     4a3:	02 00                	add    (%eax),%al
     4a5:	00 08                	add    %cl,(%eax)
     4a7:	69 00 01 ee 2c 00    	imul   $0x2cee01,(%eax),%eax
     4ad:	00 00                	add    %al,(%eax)
     4af:	ee                   	out    %al,(%dx)
     4b0:	01 00                	add    %eax,(%eax)
     4b2:	00 00                	add    %al,(%eax)
     4b4:	11 e5                	adc    %esp,%ebp
     4b6:	02 10                	add    (%eax),%dl
     4b8:	00 e2                	add    %ah,%dl
     4ba:	00 00                	add    %al,(%eax)
     4bc:	00 77 02             	add    %dh,0x2(%edi)
     4bf:	00 00                	add    %al,(%eax)
     4c1:	12 01                	adc    (%ecx),%al
     4c3:	50                   	push   %eax
     4c4:	05 03 a0 17 10       	add    $0x1017a003,%eax
     4c9:	00 00                	add    %al,(%eax)
     4cb:	09 ea                	or     %ebp,%edx
     4cd:	02 10                	add    (%eax),%dl
     4cf:	00 db                	add    %bl,%bl
     4d1:	01 00                	add    %eax,(%eax)
     4d3:	00 00                	add    %al,(%eax)
     4d5:	05 11 03 00 00       	add    $0x311,%eax
     4da:	01 f2                	add    %esi,%edx
     4dc:	00 03                	add    %al,(%ebx)
     4de:	10 00                	adc    %al,(%eax)
     4e0:	2a 00                	sub    (%eax),%al
     4e2:	00 00                	add    %al,(%eax)
     4e4:	01 9c dd 02 00 00 0e 	add    %ebx,0xe000002(%ebp,%ebx,8)
     4eb:	de 02                	fiadd  (%edx)
     4ed:	00 00                	add    %al,(%eax)
     4ef:	01 f5                	add    %esi,%ebp
     4f1:	16                   	push   %ss
     4f2:	02 00                	add    (%eax),%al
     4f4:	00 25 02 00 00 10    	add    %ah,0x10000002
     4fa:	0b 03                	or     (%ebx),%eax
     4fc:	10 00                	adc    %al,(%eax)
     4fe:	14 00                	adc    $0x0,%al
     500:	00 00                	add    %al,(%eax)
     502:	c0 02 00             	rolb   $0x0,(%edx)
     505:	00 08                	add    %cl,(%eax)
     507:	69 00 01 f6 2c 00    	imul   $0x2cf601,(%eax),%eax
     50d:	00 00                	add    %al,(%eax)
     50f:	38 02                	cmp    %al,(%edx)
     511:	00 00                	add    %al,(%eax)
     513:	00 09                	add    %cl,(%ecx)
     515:	0b 03                	or     (%ebx),%eax
     517:	10 00                	adc    %al,(%eax)
     519:	db 01                	fildl  (%ecx)
     51b:	00 00                	add    %al,(%eax)
     51d:	13 2a                	adc    (%edx),%ebp
     51f:	03 10                	add    (%eax),%edx
     521:	00 e2                	add    %ah,%dl
     523:	00 00                	add    %al,(%eax)
     525:	00 12                	add    %dl,(%edx)
     527:	01 50 05             	add    %edx,0x5(%eax)
     52a:	03 60 17             	add    0x17(%eax),%esp
     52d:	10 00                	adc    %al,(%eax)
     52f:	00 00                	add    %al,(%eax)
     531:	14 45                	adc    $0x45,%al
     533:	00 00                	add    %al,(%eax)
     535:	00 ee                	add    %ch,%dh
     537:	02 00                	add    (%eax),%al
     539:	00 15 ee 02 00 00    	add    %dl,0x2ee
     53f:	ff                   	(bad)  
     540:	f9                   	stc    
     541:	00 04 04             	add    %al,(%esp,%eax,1)
     544:	07                   	pop    %es
     545:	f5                   	cmc    
     546:	02 00                	add    (%eax),%al
     548:	00 0f                	add    %cl,(%edi)
     54a:	89 02                	mov    %eax,(%edx)
     54c:	00 00                	add    %al,(%eax)
     54e:	01 20                	add    %esp,(%eax)
     550:	dd 02                	fldl   (%edx)
     552:	00 00                	add    %al,(%eax)
     554:	05 03 60 18 10       	add    $0x10186003,%eax
     559:	00 14 45 00 00 00 16 	add    %dl,0x16000000(,%eax,2)
     560:	03 00                	add    (%eax),%eax
     562:	00 16                	add    %dl,(%esi)
     564:	ee                   	out    %al,(%dx)
     565:	02 00                	add    (%eax),%al
     567:	00 3c 00             	add    %bh,(%eax,%eax,1)
     56a:	0f c6 02 00          	shufps $0x0,(%edx),%xmm0
     56e:	00 01                	add    %al,(%ecx)
     570:	25 06 03 00 00       	and    $0x306,%eax
     575:	05 03 a0 17 10       	add    $0x1017a003,%eax
     57a:	00 0f                	add    %cl,(%edi)
     57c:	50                   	push   %eax
     57d:	02 00                	add    (%eax),%al
     57f:	00 01                	add    %al,(%ecx)
     581:	3b 06                	cmp    (%esi),%eax
     583:	03 00                	add    (%eax),%eax
     585:	00 05 03 60 17 10    	add    %al,0x10176003
     58b:	00 14 37             	add    %dl,(%edi,%esi,1)
     58e:	00 00                	add    %al,(%eax)
     590:	00 48 03             	add    %cl,0x3(%eax)
     593:	00 00                	add    %al,(%eax)
     595:	16                   	push   %ss
     596:	ee                   	out    %al,(%dx)
     597:	02 00                	add    (%eax),%al
     599:	00 ff                	add    %bh,%bh
     59b:	00 0f                	add    %cl,(%edi)
     59d:	39 02                	cmp    %eax,(%edx)
     59f:	00 00                	add    %al,(%eax)
     5a1:	01 52 38             	add    %edx,0x38(%edx)
     5a4:	03 00                	add    (%eax),%eax
     5a6:	00 05 03 60 13 10    	add    %al,0x10136003
     5ac:	00 17                	add    %dl,(%edi)
     5ae:	b5 02                	mov    $0x2,%ch
     5b0:	00 00                	add    %al,(%eax)
     5b2:	b5 02                	mov    $0x2,%ch
     5b4:	00 00                	add    %al,(%eax)
     5b6:	03 06                	add    (%esi),%eax
     5b8:	18 69 6e             	sbb    %ch,0x6e(%ecx)
     5bb:	62 00                	bound  %eax,(%eax)
     5bd:	69 6e 62 00 03 07 00 	imul   $0x70300,0x62(%esi),%ebp
     5c4:	6e                   	outsb  %ds:(%esi),(%dx)
     5c5:	02 00                	add    (%eax),%al
     5c7:	00 04 00             	add    %al,(%eax,%eax,1)
     5ca:	29 02                	sub    %eax,(%edx)
     5cc:	00 00                	add    %al,(%eax)
     5ce:	04 01                	add    $0x1,%al
     5d0:	1c 01                	sbb    $0x1,%al
     5d2:	00 00                	add    %al,(%eax)
     5d4:	0c 7c                	or     $0x7c,%al
     5d6:	03 00                	add    (%eax),%eax
     5d8:	00 08                	add    %cl,(%eax)
     5da:	00 00                	add    %al,(%eax)
     5dc:	00 2a                	add    %ch,(%edx)
     5de:	03 10                	add    (%eax),%edx
     5e0:	00 ce                	add    %cl,%dh
     5e2:	00 00                	add    %al,(%eax)
     5e4:	00 fa                	add    %bh,%dl
     5e6:	01 00                	add    %eax,(%eax)
     5e8:	00 02                	add    %al,(%edx)
     5ea:	04 05                	add    $0x5,%al
     5ec:	69 6e 74 00 03 04 07 	imul   $0x7040300,0x74(%esi),%ebp
     5f3:	0f 01 00             	sgdtl  (%eax)
     5f6:	00 03                	add    %al,(%ebx)
     5f8:	04 05                	add    $0x5,%al
     5fa:	cf                   	iret   
     5fb:	01 00                	add    %eax,(%eax)
     5fd:	00 04 75 38 00 02 06 	add    %al,0x6020038(,%esi,2)
     604:	44                   	inc    %esp
     605:	00 00                	add    %al,(%eax)
     607:	00 03                	add    %al,(%ebx)
     609:	01 08                	add    %ecx,(%eax)
     60b:	e4 00                	in     $0x0,%al
     60d:	00 00                	add    %al,(%eax)
     60f:	03 01                	add    (%ecx),%eax
     611:	06                   	push   %es
     612:	e6 00                	out    %al,$0x0
     614:	00 00                	add    %al,(%eax)
     616:	04 75                	add    $0x75,%al
     618:	31 36                	xor    %esi,(%esi)
     61a:	00 02                	add    %al,(%edx)
     61c:	08 5d 00             	or     %bl,0x0(%ebp)
     61f:	00 00                	add    %al,(%eax)
     621:	03 02                	add    (%edx),%eax
     623:	07                   	pop    %es
     624:	46                   	inc    %esi
     625:	00 00                	add    %al,(%eax)
     627:	00 03                	add    %al,(%ebx)
     629:	02 05 f1 01 00 00    	add    0x1f1,%al
     62f:	04 75                	add    $0x75,%al
     631:	33 32                	xor    (%edx),%esi
     633:	00 02                	add    %al,(%edx)
     635:	0a 2c 00             	or     (%eax,%eax,1),%ch
     638:	00 00                	add    %al,(%eax)
     63a:	04 73                	add    $0x73,%al
     63c:	33 32                	xor    (%edx),%esi
     63e:	00 02                	add    %al,(%edx)
     640:	0b 25 00 00 00 03    	or     0x3000000,%esp
     646:	08 07                	or     %al,(%edi)
     648:	05 01 00 00 03       	add    $0x3000001,%eax
     64d:	08 05 ca 01 00 00    	or     %al,0x1ca
     653:	05 26 03 00 00       	add    $0x326,%eax
     658:	08 03                	or     %al,(%ebx)
     65a:	10 e4                	adc    %ah,%ah
     65c:	00 00                	add    %al,(%eax)
     65e:	00 06                	add    %al,(%esi)
     660:	87 03                	xchg   %eax,(%ebx)
     662:	00 00                	add    %al,(%eax)
     664:	03 12                	add    (%edx),%edx
     666:	52                   	push   %edx
     667:	00 00                	add    %al,(%eax)
     669:	00 00                	add    %al,(%eax)
     66b:	06                   	push   %es
     66c:	9b                   	fwait
     66d:	03 00                	add    (%eax),%eax
     66f:	00 03                	add    %al,(%ebx)
     671:	13 52 00             	adc    0x0(%edx),%edx
     674:	00 00                	add    %al,(%eax)
     676:	02 06                	add    (%esi),%al
     678:	50                   	push   %eax
     679:	03 00                	add    (%eax),%eax
     67b:	00 03                	add    %al,(%ebx)
     67d:	14 3a                	adc    $0x3a,%al
     67f:	00 00                	add    %al,(%eax)
     681:	00 04 06             	add    %al,(%esi,%eax,1)
     684:	37                   	aaa    
     685:	03 00                	add    (%eax),%eax
     687:	00 03                	add    %al,(%ebx)
     689:	15 3a 00 00 00       	adc    $0x3a,%eax
     68e:	05 06 a4 03 00       	add    $0x3a406,%eax
     693:	00 03                	add    %al,(%ebx)
     695:	16                   	push   %ss
     696:	3a 00                	cmp    (%eax),%al
     698:	00 00                	add    %al,(%eax)
     69a:	06                   	push   %es
     69b:	06                   	push   %es
     69c:	91                   	xchg   %eax,%ecx
     69d:	03 00                	add    (%eax),%eax
     69f:	00 03                	add    %al,(%ebx)
     6a1:	17                   	pop    %ss
     6a2:	3a 00                	cmp    (%eax),%al
     6a4:	00 00                	add    %al,(%eax)
     6a6:	07                   	pop    %es
     6a7:	00 07                	add    %al,(%edi)
     6a9:	44                   	inc    %esp
     6aa:	03 00                	add    (%eax),%eax
     6ac:	00 03                	add    %al,(%ebx)
     6ae:	19 8f 00 00 00 05    	sbb    %ecx,0x5000000(%edi)
     6b4:	68 03 00 00 06       	push   $0x6000003
     6b9:	03 1e                	add    (%esi),%ebx
     6bb:	14 01                	adc    $0x1,%al
     6bd:	00 00                	add    %al,(%eax)
     6bf:	06                   	push   %es
     6c0:	3e 03 00             	add    %ds:(%eax),%eax
     6c3:	00 03                	add    %al,(%ebx)
     6c5:	20 52 00             	and    %dl,0x0(%edx)
     6c8:	00 00                	add    %al,(%eax)
     6ca:	00 06                	add    %al,(%esi)
     6cc:	77 03                	ja     6d1 <multiboot_header-0xff9af>
     6ce:	00 00                	add    %al,(%eax)
     6d0:	03 21                	add    (%ecx),%esp
     6d2:	6b 00 00             	imul   $0x0,(%eax),%eax
     6d5:	00 02                	add    %al,(%edx)
     6d7:	00 07                	add    %al,(%edi)
     6d9:	c5 03                	lds    (%ebx),%eax
     6db:	00 00                	add    %al,(%eax)
     6dd:	03 23                	add    (%ebx),%esp
     6df:	ef                   	out    %eax,(%dx)
     6e0:	00 00                	add    %al,(%eax)
     6e2:	00 08                	add    %cl,(%eax)
     6e4:	b0 03                	mov    $0x3,%al
     6e6:	00 00                	add    %al,(%eax)
     6e8:	01 37                	add    %esi,(%edi)
     6ea:	01 63 01             	add    %esp,0x1(%ebx)
     6ed:	00 00                	add    %al,(%eax)
     6ef:	09 6e 75             	or     %ebp,0x75(%esi)
     6f2:	6d                   	insl   (%dx),%es:(%edi)
     6f3:	00 01                	add    %al,(%ecx)
     6f5:	37                   	aaa    
     6f6:	76 00                	jbe    6f8 <multiboot_header-0xff988>
     6f8:	00 00                	add    %al,(%eax)
     6fa:	0a 77 03             	or     0x3(%edi),%dh
     6fd:	00 00                	add    %al,(%eax)
     6ff:	01 37                	add    %esi,(%edi)
     701:	6b 00 00             	imul   $0x0,(%eax),%eax
     704:	00 0a                	add    %cl,(%edx)
     706:	3e 03 00             	add    %ds:(%eax),%eax
     709:	00 01                	add    %al,(%ecx)
     70b:	37                   	aaa    
     70c:	6b 00 00             	imul   $0x0,(%eax),%eax
     70f:	00 0a                	add    %cl,(%edx)
     711:	37                   	aaa    
     712:	03 00                	add    (%eax),%eax
     714:	00 01                	add    %al,(%ecx)
     716:	37                   	aaa    
     717:	3a 00                	cmp    (%eax),%al
     719:	00 00                	add    %al,(%eax)
     71b:	0a 82 03 00 00 01    	or     0x1000003(%edx),%al
     721:	37                   	aaa    
     722:	3a 00                	cmp    (%eax),%al
     724:	00 00                	add    %al,(%eax)
     726:	00 0b                	add    %cl,(%ebx)
     728:	d1 00                	roll   (%eax)
     72a:	00 00                	add    %al,(%eax)
     72c:	01 0e                	add    %ecx,(%esi)
     72e:	2a 03                	sub    (%ebx),%al
     730:	10 00                	adc    %al,(%eax)
     732:	ce                   	into   
     733:	00 00                	add    %al,(%eax)
     735:	00 01                	add    %al,(%ecx)
     737:	9c                   	pushf  
     738:	38 02                	cmp    %al,(%edx)
     73a:	00 00                	add    %al,(%eax)
     73c:	0c 1f                	or     $0x1f,%al
     73e:	01 00                	add    %eax,(%eax)
     740:	00 3e                	add    %bh,(%esi)
     742:	03 10                	add    (%eax),%edx
     744:	00 18                	add    %bl,(%eax)
     746:	00 00                	add    %al,(%eax)
     748:	00 01                	add    %al,(%ecx)
     74a:	13 b9 01 00 00 0d    	adc    0xd000001(%ecx),%edi
     750:	36 01 00             	add    %eax,%ss:(%eax)
     753:	00 57 02             	add    %dl,0x2(%edi)
     756:	00 00                	add    %al,(%eax)
     758:	0d 57 01 00 00       	or     $0x157,%eax
     75d:	57                   	push   %edi
     75e:	02 00                	add    (%eax),%al
     760:	00 0d 4c 01 00 00    	add    %cl,0x14c
     766:	57                   	push   %edi
     767:	02 00                	add    (%eax),%al
     769:	00 0d 41 01 00 00    	add    %cl,0x141
     76f:	57                   	push   %edi
     770:	02 00                	add    (%eax),%al
     772:	00 0d 2b 01 00 00    	add    %cl,0x12b
     778:	57                   	push   %edi
     779:	02 00                	add    (%eax),%al
     77b:	00 00                	add    %al,(%eax)
     77d:	0e                   	push   %cs
     77e:	1f                   	pop    %ds
     77f:	01 00                	add    %eax,(%eax)
     781:	00 6e 03             	add    %ch,0x3(%esi)
     784:	10 00                	adc    %al,(%eax)
     786:	2e 00 00             	add    %al,%cs:(%eax)
     789:	00 01                	add    %al,(%ecx)
     78b:	14 fa                	adc    $0xfa,%al
     78d:	01 00                	add    %eax,(%eax)
     78f:	00 0d 36 01 00 00    	add    %cl,0x136
     795:	6b 02 00             	imul   $0x0,(%edx),%eax
     798:	00 0d 57 01 00 00    	add    %cl,0x157
     79e:	7f 02                	jg     7a2 <multiboot_header-0xff8de>
     7a0:	00 00                	add    %al,(%eax)
     7a2:	0d 4c 01 00 00       	or     $0x14c,%eax
     7a7:	94                   	xchg   %eax,%esp
     7a8:	02 00                	add    (%eax),%al
     7aa:	00 0d 41 01 00 00    	add    %cl,0x141
     7b0:	a9 02 00 00 0d       	test   $0xd000002,%eax
     7b5:	2b 01                	sub    (%ecx),%eax
     7b7:	00 00                	add    %al,(%eax)
     7b9:	be 02 00 00 00       	mov    $0x2,%esi
     7be:	0f 1f 01             	nopl   (%ecx)
     7c1:	00 00                	add    %al,(%eax)
     7c3:	9c                   	pushf  
     7c4:	03 10                	add    (%eax),%edx
     7c6:	00 2e                	add    %ch,(%esi)
     7c8:	00 00                	add    %al,(%eax)
     7ca:	00 01                	add    %al,(%ecx)
     7cc:	15 0d 36 01 00       	adc    $0x1360d,%eax
     7d1:	00 d2                	add    %dl,%dl
     7d3:	02 00                	add    (%eax),%al
     7d5:	00 0d 57 01 00 00    	add    %cl,0x157
     7db:	e6 02                	out    %al,$0x2
     7dd:	00 00                	add    %al,(%eax)
     7df:	0d 4c 01 00 00       	or     $0x14c,%eax
     7e4:	fb                   	sti    
     7e5:	02 00                	add    (%eax),%al
     7e7:	00 0d 41 01 00 00    	add    %cl,0x141
     7ed:	10 03                	adc    %al,(%ebx)
     7ef:	00 00                	add    %al,(%eax)
     7f1:	0d 2b 01 00 00       	or     $0x12b,%eax
     7f6:	25 03 00 00 00       	and    $0x3,%eax
     7fb:	00 10                	add    %dl,(%eax)
     7fd:	e4 00                	in     $0x0,%al
     7ff:	00 00                	add    %al,(%eax)
     801:	48                   	dec    %eax
     802:	02 00                	add    (%eax),%al
     804:	00 11                	add    %dl,(%ecx)
     806:	48                   	dec    %eax
     807:	02 00                	add    (%eax),%al
     809:	00 02                	add    %al,(%edx)
     80b:	00 03                	add    %al,(%ebx)
     80d:	04 07                	add    $0x7,%al
     80f:	f5                   	cmc    
     810:	02 00                	add    (%eax),%al
     812:	00 12                	add    %dl,(%edx)
     814:	5c                   	pop    %esp
     815:	03 00                	add    (%eax),%eax
     817:	00 01                	add    %al,(%ecx)
     819:	08 38                	or     %bh,(%eax)
     81b:	02 00                	add    (%eax),%al
     81d:	00 05 03 68 12 11    	add    %al,0x11126803
     823:	00 12                	add    %dl,(%edx)
     825:	bd 03 00 00 01       	mov    $0x1000003,%ebp
     82a:	09 14 01             	or     %edx,(%ecx,%eax,1)
     82d:	00 00                	add    %al,(%eax)
     82f:	05 03 60 12 11       	add    $0x11126003,%eax
     834:	00 00                	add    %al,(%eax)
     836:	72 01                	jb     839 <multiboot_header-0xff847>
     838:	00 00                	add    %al,(%eax)
     83a:	04 00                	add    $0x0,%al
     83c:	2b 03                	sub    (%ebx),%eax
     83e:	00 00                	add    %al,(%eax)
     840:	04 01                	add    $0x1,%al
     842:	1c 01                	sbb    $0x1,%al
     844:	00 00                	add    %al,(%eax)
     846:	0c cf                	or     $0xcf,%al
     848:	03 00                	add    (%eax),%eax
     84a:	00 08                	add    %cl,(%eax)
     84c:	00 00                	add    %al,(%eax)
     84e:	00 f8                	add    %bh,%al
     850:	03 10                	add    (%eax),%edx
     852:	00 cd                	add    %cl,%ch
     854:	00 00                	add    %al,(%eax)
     856:	00 81 02 00 00 02    	add    %al,0x2000002(%ecx)
     85c:	04 05                	add    $0x5,%al
     85e:	69 6e 74 00 03 32 02 	imul   $0x2320300,0x74(%esi),%ebp
     865:	00 00                	add    %al,(%eax)
     867:	02 d8                	add    %al,%bl
     869:	37                   	aaa    
     86a:	00 00                	add    %al,(%eax)
     86c:	00 04 04             	add    %al,(%esp,%eax,1)
     86f:	07                   	pop    %es
     870:	0f 01 00             	sgdtl  (%eax)
     873:	00 04 04             	add    %al,(%esp,%eax,1)
     876:	05 cf 01 00 00       	add    $0x1cf,%eax
     87b:	04 01                	add    $0x1,%al
     87d:	08 e4                	or     %ah,%ah
     87f:	00 00                	add    %al,(%eax)
     881:	00 04 01             	add    %al,(%ecx,%eax,1)
     884:	06                   	push   %es
     885:	e6 00                	out    %al,$0x0
     887:	00 00                	add    %al,(%eax)
     889:	04 02                	add    $0x2,%al
     88b:	07                   	pop    %es
     88c:	46                   	inc    %esi
     88d:	00 00                	add    %al,(%eax)
     88f:	00 04 02             	add    %al,(%edx,%eax,1)
     892:	05 f1 01 00 00       	add    $0x1f1,%eax
     897:	04 08                	add    $0x8,%al
     899:	07                   	pop    %es
     89a:	05 01 00 00 04       	add    $0x4000001,%eax
     89f:	08 05 ca 01 00 00    	or     %al,0x1ca
     8a5:	05 00 00 00 00       	add    $0x0,%eax
     8aa:	01 04 f8             	add    %eax,(%eax,%edi,8)
     8ad:	03 10                	add    (%eax),%edx
     8af:	00 96 00 00 00 01    	add    %dl,0x1000000(%esi)
     8b5:	9c                   	pushf  
     8b6:	f7 00 00 00 06 6e    	testl  $0x6e060000,(%eax)
     8bc:	31 00                	xor    %eax,(%eax)
     8be:	01 06                	add    %eax,(%esi)
     8c0:	25 00 00 00 39       	and    $0x39000000,%eax
     8c5:	03 00                	add    (%eax),%eax
     8c7:	00 06                	add    %al,(%esi)
     8c9:	6e                   	outsb  %ds:(%esi),(%dx)
     8ca:	32 00                	xor    (%eax),%al
     8cc:	01 07                	add    %eax,(%edi)
     8ce:	25 00 00 00 51       	and    $0x51000000,%eax
     8d3:	03 00                	add    (%eax),%eax
     8d5:	00 06                	add    %al,(%esi)
     8d7:	6e                   	outsb  %ds:(%esi),(%dx)
     8d8:	33 00                	xor    (%eax),%eax
     8da:	01 08                	add    %ecx,(%eax)
     8dc:	25 00 00 00 79       	and    $0x79000000,%eax
     8e1:	03 00                	add    (%eax),%eax
     8e3:	00 07                	add    %al,(%edi)
     8e5:	0b 04 10             	or     (%eax,%edx,1),%eax
     8e8:	00 5f 01             	add    %bl,0x1(%edi)
     8eb:	00 00                	add    %al,(%eax)
     8ed:	07                   	pop    %es
     8ee:	1f                   	pop    %ds
     8ef:	04 10                	add    $0x10,%al
     8f1:	00 5f 01             	add    %bl,0x1(%edi)
     8f4:	00 00                	add    %al,(%eax)
     8f6:	07                   	pop    %es
     8f7:	30 04 10             	xor    %al,(%eax,%edx,1)
     8fa:	00 5f 01             	add    %bl,0x1(%edi)
     8fd:	00 00                	add    %al,(%eax)
     8ff:	07                   	pop    %es
     900:	45                   	inc    %ebp
     901:	04 10                	add    $0x10,%al
     903:	00 6a 01             	add    %ch,0x1(%edx)
     906:	00 00                	add    %al,(%eax)
     908:	07                   	pop    %es
     909:	53                   	push   %ebx
     90a:	04 10                	add    $0x10,%al
     90c:	00 6a 01             	add    %ch,0x1(%edx)
     90f:	00 00                	add    %al,(%eax)
     911:	07                   	pop    %es
     912:	61                   	popa   
     913:	04 10                	add    $0x10,%al
     915:	00 6a 01             	add    %ch,0x1(%edx)
     918:	00 00                	add    %al,(%eax)
     91a:	07                   	pop    %es
     91b:	6e                   	outsb  %ds:(%esi),(%dx)
     91c:	04 10                	add    $0x10,%al
     91e:	00 6a 01             	add    %ch,0x1(%edx)
     921:	00 00                	add    %al,(%eax)
     923:	07                   	pop    %es
     924:	83 04 10 00          	addl   $0x0,(%eax,%edx,1)
     928:	6a 01                	push   $0x1
     92a:	00 00                	add    %al,(%eax)
     92c:	00 08                	add    %cl,(%eax)
     92e:	ca 04 00             	lret   $0x4
     931:	00 01                	add    %al,(%ecx)
     933:	21 25 00 00 00 8e    	and    %esp,0x8e000000
     939:	04 10                	add    $0x10,%al
     93b:	00 37                	add    %dh,(%edi)
     93d:	00 00                	add    %al,(%eax)
     93f:	00 01                	add    %al,(%ecx)
     941:	9c                   	pushf  
     942:	4d                   	dec    %ebp
     943:	01 00                	add    %eax,(%eax)
     945:	00 09                	add    %cl,(%ecx)
     947:	62 75 66             	bound  %esi,0x66(%ebp)
     94a:	00 01                	add    %al,(%ecx)
     94c:	21 4d 01             	and    %ecx,0x1(%ebp)
     94f:	00 00                	add    %al,(%eax)
     951:	02 91 00 0a e3 01    	add    0x1e30a00(%ecx),%dl
     957:	00 00                	add    %al,(%eax)
     959:	01 21                	add    %esp,(%ecx)
     95b:	2c 00                	sub    $0x0,%al
     95d:	00 00                	add    %al,(%eax)
     95f:	02 91 04 0b a0 04    	add    0x4a00b04(%ecx),%dl
     965:	10 00                	adc    %al,(%eax)
     967:	1b 00                	sbb    (%eax),%eax
     969:	00 00                	add    %al,(%eax)
     96b:	06                   	push   %es
     96c:	69 00 01 23 37 00    	imul   $0x372301,(%eax),%eax
     972:	00 00                	add    %al,(%eax)
     974:	b3 03                	mov    $0x3,%bl
     976:	00 00                	add    %al,(%eax)
     978:	07                   	pop    %es
     979:	b6 04                	mov    $0x4,%dh
     97b:	10 00                	adc    %al,(%eax)
     97d:	6a 01                	push   $0x1
     97f:	00 00                	add    %al,(%eax)
     981:	00 00                	add    %al,(%eax)
     983:	0c 04                	or     $0x4,%al
     985:	5a                   	pop    %edx
     986:	01 00                	add    %eax,(%eax)
     988:	00 04 01             	add    %al,(%ecx,%eax,1)
     98b:	06                   	push   %es
     98c:	ed                   	in     (%dx),%eax
     98d:	00 00                	add    %al,(%eax)
     98f:	00 0d 53 01 00 00    	add    %cl,0x153
     995:	0e                   	push   %cs
     996:	69 6e 62 00 69 6e 62 	imul   $0x626e6900,0x62(%esi),%ebp
     99d:	00 03                	add    %al,(%ebx)
     99f:	07                   	pop    %es
     9a0:	0f b5 02             	lgs    (%edx),%eax
     9a3:	00 00                	add    %al,(%eax)
     9a5:	b5 02                	mov    $0x2,%ch
     9a7:	00 00                	add    %al,(%eax)
     9a9:	03 06                	add    (%esi),%eax
     9ab:	00 f5                	add    %dh,%ch
     9ad:	02 00                	add    (%eax),%al
     9af:	00 04 00             	add    %al,(%eax,%eax,1)
     9b2:	09 04 00             	or     %eax,(%eax,%eax,1)
     9b5:	00 04 01             	add    %al,(%ecx,%eax,1)
     9b8:	1c 01                	sbb    $0x1,%al
     9ba:	00 00                	add    %al,(%eax)
     9bc:	0c 4f                	or     $0x4f,%al
     9be:	04 00                	add    $0x0,%al
     9c0:	00 08                	add    %cl,(%eax)
     9c2:	00 00                	add    %al,(%eax)
     9c4:	00 ff                	add    %bh,%bh
     9c6:	05 10 00 0b 03       	add    $0x30b0010,%eax
     9cb:	00 00                	add    %al,(%eax)
     9cd:	24 03                	and    $0x3,%al
     9cf:	00 00                	add    %al,(%eax)
     9d1:	02 04 05 69 6e 74 00 	add    0x746e69(,%eax,1),%al
     9d8:	03 04 07             	add    (%edi,%eax,1),%eax
     9db:	0f 01 00             	sgdtl  (%eax)
     9de:	00 03                	add    %al,(%ebx)
     9e0:	04 05                	add    $0x5,%al
     9e2:	cf                   	iret   
     9e3:	01 00                	add    %eax,(%eax)
     9e5:	00 04 75 38 00 02 06 	add    %al,0x6020038(,%esi,2)
     9ec:	44                   	inc    %esp
     9ed:	00 00                	add    %al,(%eax)
     9ef:	00 03                	add    %al,(%ebx)
     9f1:	01 08                	add    %ecx,(%eax)
     9f3:	e4 00                	in     $0x0,%al
     9f5:	00 00                	add    %al,(%eax)
     9f7:	03 01                	add    (%ecx),%eax
     9f9:	06                   	push   %es
     9fa:	e6 00                	out    %al,$0x0
     9fc:	00 00                	add    %al,(%eax)
     9fe:	04 75                	add    $0x75,%al
     a00:	31 36                	xor    %esi,(%esi)
     a02:	00 02                	add    %al,(%edx)
     a04:	08 5d 00             	or     %bl,0x0(%ebp)
     a07:	00 00                	add    %al,(%eax)
     a09:	03 02                	add    (%edx),%eax
     a0b:	07                   	pop    %es
     a0c:	46                   	inc    %esi
     a0d:	00 00                	add    %al,(%eax)
     a0f:	00 03                	add    %al,(%ebx)
     a11:	02 05 f1 01 00 00    	add    0x1f1,%al
     a17:	04 75                	add    $0x75,%al
     a19:	33 32                	xor    (%edx),%esi
     a1b:	00 02                	add    %al,(%edx)
     a1d:	0a 2c 00             	or     (%eax,%eax,1),%ch
     a20:	00 00                	add    %al,(%eax)
     a22:	03 08                	add    (%eax),%ecx
     a24:	07                   	pop    %es
     a25:	05 01 00 00 03       	add    $0x3000001,%eax
     a2a:	08 05 ca 01 00 00    	or     %al,0x1ca
     a30:	05 10 04 00 00       	add    $0x410,%eax
     a35:	08 03                	or     %al,(%ebx)
     a37:	0b cd                	or     %ebp,%ecx
     a39:	00 00                	add    %al,(%eax)
     a3b:	00 06                	add    %al,(%esi)
     a3d:	00 04 00             	add    %al,(%eax,%eax,1)
     a40:	00 03                	add    %al,(%ebx)
     a42:	0d 52 00 00 00       	or     $0x52,%eax
     a47:	00 07                	add    %al,(%edi)
     a49:	73 65                	jae    ab0 <multiboot_header-0xff5d0>
     a4b:	6c                   	insb   (%dx),%es:(%edi)
     a4c:	00 03                	add    %al,(%ebx)
     a4e:	0e                   	push   %cs
     a4f:	52                   	push   %edx
     a50:	00 00                	add    %al,(%eax)
     a52:	00 02                	add    %al,(%edx)
     a54:	06                   	push   %es
     a55:	08 04 00             	or     %al,(%eax,%eax,1)
     a58:	00 03                	add    %al,(%ebx)
     a5a:	0f 3a 00             	(bad)  
     a5d:	00 00                	add    %al,(%eax)
     a5f:	04 06                	add    $0x6,%al
     a61:	96                   	xchg   %eax,%esi
     a62:	04 00                	add    $0x0,%al
     a64:	00 03                	add    %al,(%ebx)
     a66:	10 3a                	adc    %bh,(%edx)
     a68:	00 00                	add    %al,(%eax)
     a6a:	00 05 06 ec 03 00    	add    %al,0x3ec06
     a70:	00 03                	add    %al,(%ebx)
     a72:	11 52 00             	adc    %edx,0x0(%edx)
     a75:	00 00                	add    %al,(%eax)
     a77:	06                   	push   %es
     a78:	00 08                	add    %cl,(%eax)
     a7a:	f4                   	hlt    
     a7b:	03 00                	add    (%eax),%eax
     a7d:	00 03                	add    %al,(%ebx)
     a7f:	13 84 00 00 00 05 2e 	adc    0x2e050000(%eax,%eax,1),%eax
     a86:	04 00                	add    $0x0,%al
     a88:	00 06                	add    %al,(%esi)
     a8a:	03 17                	add    (%edi),%edx
     a8c:	fd                   	std    
     a8d:	00 00                	add    %al,(%eax)
     a8f:	00 06                	add    %al,(%esi)
     a91:	3e 03 00             	add    %ds:(%eax),%eax
     a94:	00 03                	add    %al,(%ebx)
     a96:	19 52 00             	sbb    %edx,0x0(%edx)
     a99:	00 00                	add    %al,(%eax)
     a9b:	00 06                	add    %al,(%esi)
     a9d:	77 03                	ja     aa2 <multiboot_header-0xff5de>
     a9f:	00 00                	add    %al,(%eax)
     aa1:	03 1a                	add    (%edx),%ebx
     aa3:	6b 00 00             	imul   $0x0,(%eax),%eax
     aa6:	00 02                	add    %al,(%edx)
     aa8:	00 08                	add    %cl,(%eax)
     aaa:	3d 04 00 00 03       	cmp    $0x3000004,%eax
     aaf:	1c d8                	sbb    $0xd8,%al
     ab1:	00 00                	add    %al,(%eax)
     ab3:	00 09                	add    %cl,(%ecx)
     ab5:	21 04 00             	and    %eax,(%eax,%eax,1)
     ab8:	00 01                	add    %al,(%ecx)
     aba:	08 ff                	or     %bh,%bh
     abc:	05 10 00 3c 00       	add    $0x3c0010,%eax
     ac1:	00 00                	add    %al,(%eax)
     ac3:	01 9c 56 01 00 00 0a 	add    %ebx,0xa000001(%esi,%edx,2)
     aca:	6e                   	outsb  %ds:(%esi),(%dx)
     acb:	75 6d                	jne    b3a <multiboot_header-0xff546>
     acd:	00 01                	add    %al,(%ecx)
     acf:	08 3a                	or     %bh,(%edx)
     ad1:	00 00                	add    %al,(%eax)
     ad3:	00 02                	add    %al,(%edx)
     ad5:	91                   	xchg   %eax,%ecx
     ad6:	00 0b                	add    %cl,(%ebx)
     ad8:	77 03                	ja     add <multiboot_header-0xff5a3>
     ada:	00 00                	add    %al,(%eax)
     adc:	01 08                	add    %ecx,(%eax)
     ade:	6b 00 00             	imul   $0x0,(%eax),%eax
     ae1:	00 02                	add    %al,(%edx)
     ae3:	91                   	xchg   %eax,%ecx
     ae4:	04 0a                	add    $0xa,%al
     ae6:	73 65                	jae    b4d <multiboot_header-0xff533>
     ae8:	6c                   	insb   (%dx),%es:(%edi)
     ae9:	00 01                	add    %al,(%ecx)
     aeb:	08 52 00             	or     %dl,0x0(%edx)
     aee:	00 00                	add    %al,(%eax)
     af0:	02 91 08 0b 96 04    	add    0x4960b08(%ecx),%dl
     af6:	00 00                	add    %al,(%eax)
     af8:	01 08                	add    %ecx,(%eax)
     afa:	3a 00                	cmp    (%eax),%al
     afc:	00 00                	add    %al,(%eax)
     afe:	02 91 0c 00 0c e3    	add    -0x1cf3fff4(%ecx),%dl
     b04:	03 00                	add    (%eax),%eax
     b06:	00 01                	add    %al,(%ecx)
     b08:	1d 3b 06 10 00       	sbb    $0x10063b,%eax
     b0d:	9c                   	pushf  
     b0e:	02 00                	add    (%eax),%al
     b10:	00 01                	add    %al,(%ecx)
     b12:	9c                   	pushf  
     b13:	8c 02                	mov    %es,(%edx)
     b15:	00 00                	add    %al,(%eax)
     b17:	0d 51 06 10 00       	or     $0x100651,%eax
     b1c:	08 01                	or     %al,(%ecx)
     b1e:	00 00                	add    %al,(%eax)
     b20:	0d 64 06 10 00       	or     $0x100664,%eax
     b25:	08 01                	or     %al,(%ecx)
     b27:	00 00                	add    %al,(%eax)
     b29:	0d 7a 06 10 00       	or     $0x10067a,%eax
     b2e:	08 01                	or     %al,(%ecx)
     b30:	00 00                	add    %al,(%eax)
     b32:	0d 8d 06 10 00       	or     $0x10068d,%eax
     b37:	08 01                	or     %al,(%ecx)
     b39:	00 00                	add    %al,(%eax)
     b3b:	0d a3 06 10 00       	or     $0x1006a3,%eax
     b40:	08 01                	or     %al,(%ecx)
     b42:	00 00                	add    %al,(%eax)
     b44:	0d b6 06 10 00       	or     $0x1006b6,%eax
     b49:	08 01                	or     %al,(%ecx)
     b4b:	00 00                	add    %al,(%eax)
     b4d:	0d cc 06 10 00       	or     $0x1006cc,%eax
     b52:	08 01                	or     %al,(%ecx)
     b54:	00 00                	add    %al,(%eax)
     b56:	0d df 06 10 00       	or     $0x1006df,%eax
     b5b:	08 01                	or     %al,(%ecx)
     b5d:	00 00                	add    %al,(%eax)
     b5f:	0d f5 06 10 00       	or     $0x1006f5,%eax
     b64:	08 01                	or     %al,(%ecx)
     b66:	00 00                	add    %al,(%eax)
     b68:	0d 08 07 10 00       	or     $0x100708,%eax
     b6d:	08 01                	or     %al,(%ecx)
     b6f:	00 00                	add    %al,(%eax)
     b71:	0d 1e 07 10 00       	or     $0x10071e,%eax
     b76:	08 01                	or     %al,(%ecx)
     b78:	00 00                	add    %al,(%eax)
     b7a:	0d 31 07 10 00       	or     $0x100731,%eax
     b7f:	08 01                	or     %al,(%ecx)
     b81:	00 00                	add    %al,(%eax)
     b83:	0d 47 07 10 00       	or     $0x100747,%eax
     b88:	08 01                	or     %al,(%ecx)
     b8a:	00 00                	add    %al,(%eax)
     b8c:	0d 5a 07 10 00       	or     $0x10075a,%eax
     b91:	08 01                	or     %al,(%ecx)
     b93:	00 00                	add    %al,(%eax)
     b95:	0d 70 07 10 00       	or     $0x100770,%eax
     b9a:	08 01                	or     %al,(%ecx)
     b9c:	00 00                	add    %al,(%eax)
     b9e:	0d 83 07 10 00       	or     $0x100783,%eax
     ba3:	08 01                	or     %al,(%ecx)
     ba5:	00 00                	add    %al,(%eax)
     ba7:	0d 99 07 10 00       	or     $0x100799,%eax
     bac:	08 01                	or     %al,(%ecx)
     bae:	00 00                	add    %al,(%eax)
     bb0:	0d ac 07 10 00       	or     $0x1007ac,%eax
     bb5:	08 01                	or     %al,(%ecx)
     bb7:	00 00                	add    %al,(%eax)
     bb9:	0d c2 07 10 00       	or     $0x1007c2,%eax
     bbe:	08 01                	or     %al,(%ecx)
     bc0:	00 00                	add    %al,(%eax)
     bc2:	0d d5 07 10 00       	or     $0x1007d5,%eax
     bc7:	08 01                	or     %al,(%ecx)
     bc9:	00 00                	add    %al,(%eax)
     bcb:	0d eb 07 10 00       	or     $0x1007eb,%eax
     bd0:	08 01                	or     %al,(%ecx)
     bd2:	00 00                	add    %al,(%eax)
     bd4:	0d fe 07 10 00       	or     $0x1007fe,%eax
     bd9:	08 01                	or     %al,(%ecx)
     bdb:	00 00                	add    %al,(%eax)
     bdd:	0d 14 08 10 00       	or     $0x100814,%eax
     be2:	08 01                	or     %al,(%ecx)
     be4:	00 00                	add    %al,(%eax)
     be6:	0d 27 08 10 00       	or     $0x100827,%eax
     beb:	08 01                	or     %al,(%ecx)
     bed:	00 00                	add    %al,(%eax)
     bef:	0d 3d 08 10 00       	or     $0x10083d,%eax
     bf4:	08 01                	or     %al,(%ecx)
     bf6:	00 00                	add    %al,(%eax)
     bf8:	0d 50 08 10 00       	or     $0x100850,%eax
     bfd:	08 01                	or     %al,(%ecx)
     bff:	00 00                	add    %al,(%eax)
     c01:	0d 66 08 10 00       	or     $0x100866,%eax
     c06:	08 01                	or     %al,(%ecx)
     c08:	00 00                	add    %al,(%eax)
     c0a:	0d 79 08 10 00       	or     $0x100879,%eax
     c0f:	08 01                	or     %al,(%ecx)
     c11:	00 00                	add    %al,(%eax)
     c13:	0d 8f 08 10 00       	or     $0x10088f,%eax
     c18:	08 01                	or     %al,(%ecx)
     c1a:	00 00                	add    %al,(%eax)
     c1c:	0d a2 08 10 00       	or     $0x1008a2,%eax
     c21:	08 01                	or     %al,(%ecx)
     c23:	00 00                	add    %al,(%eax)
     c25:	0d b8 08 10 00       	or     $0x1008b8,%eax
     c2a:	08 01                	or     %al,(%ecx)
     c2c:	00 00                	add    %al,(%eax)
     c2e:	0d cb 08 10 00       	or     $0x1008cb,%eax
     c33:	08 01                	or     %al,(%ecx)
     c35:	00 00                	add    %al,(%eax)
     c37:	00 0c 21             	add    %cl,(%ecx,%eiz,1)
     c3a:	00 00                	add    %al,(%eax)
     c3c:	00 01                	add    %al,(%ecx)
     c3e:	13 d7                	adc    %edi,%edx
     c40:	08 10                	or     %dl,(%eax)
     c42:	00 33                	add    %dh,(%ebx)
     c44:	00 00                	add    %al,(%eax)
     c46:	00 01                	add    %al,(%ecx)
     c48:	9c                   	pushf  
     c49:	b4 02                	mov    $0x2,%ah
     c4b:	00 00                	add    %al,(%eax)
     c4d:	0d 01 09 10 00       	or     $0x100901,%eax
     c52:	ed                   	in     (%dx),%eax
     c53:	02 00                	add    (%eax),%al
     c55:	00 0e                	add    %cl,(%esi)
     c57:	0a 09                	or     (%ecx),%cl
     c59:	10 00                	adc    %al,(%eax)
     c5b:	56                   	push   %esi
     c5c:	01 00                	add    %eax,(%eax)
     c5e:	00 00                	add    %al,(%eax)
     c60:	0f cd                	bswap  %ebp
     c62:	00 00                	add    %al,(%eax)
     c64:	00 c4                	add    %al,%ah
     c66:	02 00                	add    (%eax),%al
     c68:	00 10                	add    %dl,(%eax)
     c6a:	c4 02                	les    (%edx),%eax
     c6c:	00 00                	add    %al,(%eax)
     c6e:	ff 00                	incl   (%eax)
     c70:	03 04 07             	add    (%edi,%eax,1),%eax
     c73:	f5                   	cmc    
     c74:	02 00                	add    (%eax),%al
     c76:	00 11                	add    %dl,(%ecx)
     c78:	d7                   	xlat   %ds:(%ebx)
     c79:	03 00                	add    (%eax),%eax
     c7b:	00 01                	add    %al,(%ecx)
     c7d:	04 b4                	add    $0xb4,%al
     c7f:	02 00                	add    (%eax),%al
     c81:	00 05 03 a0 12 11    	add    %al,0x1112a003
     c87:	00 11                	add    %dl,(%ecx)
     c89:	47                   	inc    %edi
     c8a:	04 00                	add    $0x0,%al
     c8c:	00 01                	add    %al,(%ecx)
     c8e:	05 fd 00 00 00       	add    $0xfd,%eax
     c93:	05 03 80 12 11       	add    $0x11128003,%eax
     c98:	00 12                	add    %dl,(%edx)
     c9a:	55                   	push   %ebp
     c9b:	04 00                	add    $0x0,%al
     c9d:	00 55 04             	add    %dl,0x4(%ebp)
     ca0:	00 00                	add    %al,(%eax)
     ca2:	04 1f                	add    $0x1f,%al
     ca4:	00 dd                	add    %bl,%ch
     ca6:	01 00                	add    %eax,(%eax)
     ca8:	00 04 00             	add    %al,(%eax,%eax,1)
     cab:	17                   	pop    %ss
     cac:	05 00 00 04 01       	add    $0x1040000,%eax
     cb1:	1c 01                	sbb    $0x1,%al
     cb3:	00 00                	add    %al,(%eax)
     cb5:	0c 70                	or     $0x70,%al
     cb7:	04 00                	add    $0x0,%al
     cb9:	00 08                	add    %cl,(%eax)
     cbb:	00 00                	add    %al,(%eax)
     cbd:	00 0a                	add    %cl,(%edx)
     cbf:	09 10                	or     %edx,(%eax)
     cc1:	00 51 00             	add    %dl,0x0(%ecx)
     cc4:	00 00                	add    %al,(%eax)
     cc6:	f8                   	clc    
     cc7:	03 00                	add    (%eax),%eax
     cc9:	00 02                	add    %al,(%edx)
     ccb:	04 05                	add    $0x5,%al
     ccd:	69 6e 74 00 03 04 07 	imul   $0x7040300,0x74(%esi),%ebp
     cd4:	0f 01 00             	sgdtl  (%eax)
     cd7:	00 03                	add    %al,(%ebx)
     cd9:	04 05                	add    $0x5,%al
     cdb:	cf                   	iret   
     cdc:	01 00                	add    %eax,(%eax)
     cde:	00 03                	add    %al,(%ebx)
     ce0:	01 08                	add    %ecx,(%eax)
     ce2:	e4 00                	in     $0x0,%al
     ce4:	00 00                	add    %al,(%eax)
     ce6:	03 01                	add    (%ecx),%eax
     ce8:	06                   	push   %es
     ce9:	e6 00                	out    %al,$0x0
     ceb:	00 00                	add    %al,(%eax)
     ced:	03 02                	add    (%edx),%eax
     cef:	07                   	pop    %es
     cf0:	46                   	inc    %esi
     cf1:	00 00                	add    %al,(%eax)
     cf3:	00 03                	add    %al,(%ebx)
     cf5:	02 05 f1 01 00 00    	add    0x1f1,%al
     cfb:	04 75                	add    $0x75,%al
     cfd:	33 32                	xor    (%edx),%esi
     cff:	00 04 0a             	add    %al,(%edx,%ecx,1)
     d02:	2c 00                	sub    $0x0,%al
     d04:	00 00                	add    %al,(%eax)
     d06:	03 08                	add    (%eax),%ecx
     d08:	07                   	pop    %es
     d09:	05 01 00 00 03       	add    $0x3000001,%eax
     d0e:	08 05 ca 01 00 00    	or     %al,0x1ca
     d14:	03 01                	add    (%ecx),%eax
     d16:	06                   	push   %es
     d17:	ed                   	in     (%dx),%eax
     d18:	00 00                	add    %al,(%eax)
     d1a:	00 05 b8 04 00 00    	add    %al,0x4b8
     d20:	40                   	inc    %eax
     d21:	02 0e                	add    (%esi),%cl
     d23:	40                   	inc    %eax
     d24:	01 00                	add    %eax,(%eax)
     d26:	00 06                	add    %al,(%esi)
     d28:	64 73 00             	fs jae d2b <multiboot_header-0xff355>
     d2b:	02 10                	add    (%eax),%dl
     d2d:	56                   	push   %esi
     d2e:	00 00                	add    %al,(%eax)
     d30:	00 00                	add    %al,(%eax)
     d32:	06                   	push   %es
     d33:	65 64 69 00 02 11 56 	gs imul $0x561102,%fs:(%eax),%eax
     d3a:	00 
     d3b:	00 00                	add    %al,(%eax)
     d3d:	04 06                	add    $0x6,%al
     d3f:	65 73 69             	gs jae dab <multiboot_header-0xff2d5>
     d42:	00 02                	add    %al,(%edx)
     d44:	11 56 00             	adc    %edx,0x0(%esi)
     d47:	00 00                	add    %al,(%eax)
     d49:	08 06                	or     %al,(%esi)
     d4b:	65 62 70 00          	bound  %esi,%gs:0x0(%eax)
     d4f:	02 11                	add    (%ecx),%dl
     d51:	56                   	push   %esi
     d52:	00 00                	add    %al,(%eax)
     d54:	00 0c 06             	add    %cl,(%esi,%eax,1)
     d57:	65 73 70             	gs jae dca <multiboot_header-0xff2b6>
     d5a:	00 02                	add    %al,(%edx)
     d5c:	11 56 00             	adc    %edx,0x0(%esi)
     d5f:	00 00                	add    %al,(%eax)
     d61:	10 06                	adc    %al,(%esi)
     d63:	65 62 78 00          	bound  %edi,%gs:0x0(%eax)
     d67:	02 11                	add    (%ecx),%dl
     d69:	56                   	push   %esi
     d6a:	00 00                	add    %al,(%eax)
     d6c:	00 14 06             	add    %dl,(%esi,%eax,1)
     d6f:	65 64 78 00          	gs fs js d73 <multiboot_header-0xff30d>
     d73:	02 11                	add    (%ecx),%dl
     d75:	56                   	push   %esi
     d76:	00 00                	add    %al,(%eax)
     d78:	00 18                	add    %bl,(%eax)
     d7a:	06                   	push   %es
     d7b:	65 63 78 00          	arpl   %di,%gs:0x0(%eax)
     d7f:	02 11                	add    (%ecx),%dl
     d81:	56                   	push   %esi
     d82:	00 00                	add    %al,(%eax)
     d84:	00 1c 06             	add    %bl,(%esi,%eax,1)
     d87:	65 61                	gs popa 
     d89:	78 00                	js     d8b <multiboot_header-0xff2f5>
     d8b:	02 11                	add    (%ecx),%dl
     d8d:	56                   	push   %esi
     d8e:	00 00                	add    %al,(%eax)
     d90:	00 20                	add    %ah,(%eax)
     d92:	07                   	pop    %es
     d93:	76 04                	jbe    d99 <multiboot_header-0xff2e7>
     d95:	00 00                	add    %al,(%eax)
     d97:	02 12                	add    (%edx),%dl
     d99:	56                   	push   %esi
     d9a:	00 00                	add    %al,(%eax)
     d9c:	00 24 07             	add    %ah,(%edi,%eax,1)
     d9f:	9c                   	pushf  
     da0:	04 00                	add    $0x0,%al
     da2:	00 02                	add    %al,(%edx)
     da4:	12 56 00             	adc    0x0(%esi),%dl
     da7:	00 00                	add    %al,(%eax)
     da9:	28 06                	sub    %al,(%esi)
     dab:	65 69 70 00 02 13 56 	imul   $0x561302,%gs:0x0(%eax),%esi
     db2:	00 
     db3:	00 00                	add    %al,(%eax)
     db5:	2c 06                	sub    $0x6,%al
     db7:	63 73 00             	arpl   %si,0x0(%ebx)
     dba:	02 13                	add    (%ebx),%dl
     dbc:	56                   	push   %esi
     dbd:	00 00                	add    %al,(%eax)
     dbf:	00 30                	add    %dh,(%eax)
     dc1:	07                   	pop    %es
     dc2:	95                   	xchg   %eax,%ebp
     dc3:	04 00                	add    $0x0,%al
     dc5:	00 02                	add    %al,(%edx)
     dc7:	13 56 00             	adc    0x0(%esi),%edx
     dca:	00 00                	add    %al,(%eax)
     dcc:	34 07                	xor    $0x7,%al
     dce:	68 04 00 00 02       	push   $0x2000004
     dd3:	13 56 00             	adc    0x0(%esi),%edx
     dd6:	00 00                	add    %al,(%eax)
     dd8:	38 06                	cmp    %al,(%esi)
     dda:	73 73                	jae    e4f <multiboot_header-0xff231>
     ddc:	00 02                	add    %al,(%edx)
     dde:	13 56 00             	adc    0x0(%esi),%edx
     de1:	00 00                	add    %al,(%eax)
     de3:	3c 00                	cmp    $0x0,%al
     de5:	08 89 04 00 00 02    	or     %cl,0x2000004(%ecx)
     deb:	14 76                	adc    $0x76,%al
     ded:	00 00                	add    %al,(%eax)
     def:	00 09                	add    %cl,(%ecx)
     df1:	7d 04                	jge    df7 <multiboot_header-0xff289>
     df3:	00 00                	add    %al,(%eax)
     df5:	01 29                	add    %ebp,(%ecx)
     df7:	0a 09                	or     (%ecx),%cl
     df9:	10 00                	adc    %al,(%eax)
     dfb:	51                   	push   %ecx
     dfc:	00 00                	add    %al,(%eax)
     dfe:	00 01                	add    %al,(%ecx)
     e00:	9c                   	pushf  
     e01:	91                   	xchg   %eax,%ecx
     e02:	01 00                	add    %eax,(%eax)
     e04:	00 0a                	add    %cl,(%edx)
     e06:	72 00                	jb     e08 <multiboot_header-0xff278>
     e08:	01 29                	add    %ebp,(%ecx)
     e0a:	91                   	xchg   %eax,%ecx
     e0b:	01 00                	add    %eax,(%eax)
     e0d:	00 02                	add    %al,(%edx)
     e0f:	91                   	xchg   %eax,%ecx
     e10:	00 0b                	add    %cl,(%ebx)
     e12:	1e                   	push   %ds
     e13:	09 10                	or     %edx,(%eax)
     e15:	00 ca                	add    %cl,%dl
     e17:	01 00                	add    %eax,(%eax)
     e19:	00 0b                	add    %cl,(%ebx)
     e1b:	38 09                	cmp    %cl,(%ecx)
     e1d:	10 00                	adc    %al,(%eax)
     e1f:	ca 01 00             	lret   $0x1
     e22:	00 0c 4b             	add    %cl,(%ebx,%ecx,2)
     e25:	09 10                	or     %edx,(%eax)
     e27:	00 d5                	add    %dl,%ch
     e29:	01 00                	add    %eax,(%eax)
     e2b:	00 0c 5b             	add    %cl,(%ebx,%ebx,2)
     e2e:	09 10                	or     %edx,(%eax)
     e30:	00 ca                	add    %cl,%dl
     e32:	01 00                	add    %eax,(%eax)
     e34:	00 00                	add    %al,(%eax)
     e36:	0d 04 40 01 00       	or     $0x14004,%eax
     e3b:	00 0e                	add    %cl,(%esi)
     e3d:	ae                   	scas   %es:(%edi),%al
     e3e:	01 00                	add    %eax,(%eax)
     e40:	00 a7 01 00 00 0f    	add    %ah,0xf000001(%edi)
     e46:	a7                   	cmpsl  %es:(%edi),%ds:(%esi)
     e47:	01 00                	add    %eax,(%eax)
     e49:	00 1e                	add    %bl,(%esi)
     e4b:	00 03                	add    %al,(%ebx)
     e4d:	04 07                	add    $0x7,%al
     e4f:	f5                   	cmc    
     e50:	02 00                	add    (%eax),%al
     e52:	00 0d 04 b4 01 00    	add    %cl,0x1b404
     e58:	00 10                	add    %dl,(%eax)
     e5a:	6f                   	outsl  %ds:(%esi),(%dx)
     e5b:	00 00                	add    %al,(%eax)
     e5d:	00 11                	add    %dl,(%ecx)
     e5f:	a5                   	movsl  %ds:(%esi),%es:(%edi)
     e60:	04 00                	add    $0x0,%al
     e62:	00 01                	add    %al,(%ecx)
     e64:	06                   	push   %es
     e65:	97                   	xchg   %eax,%edi
     e66:	01 00                	add    %eax,(%eax)
     e68:	00 05 03 e0 17 10    	add    %al,0x1017e003
     e6e:	00 12                	add    %dl,(%edx)
     e70:	c2 04 00             	ret    $0x4
     e73:	00 c2                	add    %al,%dl
     e75:	04 00                	add    $0x0,%al
     e77:	00 03                	add    %al,(%ebx)
     e79:	11 12                	adc    %edx,(%edx)
     e7b:	5c                   	pop    %esp
     e7c:	04 00                	add    $0x0,%al
     e7e:	00 5c 04 00          	add    %bl,0x0(%esp,%eax,1)
     e82:	00 03                	add    %al,(%ebx)
     e84:	0b 00                	or     (%eax),%eax
     e86:	a4                   	movsb  %ds:(%esi),%es:(%edi)
     e87:	03 00                	add    (%eax),%eax
     e89:	00 04 00             	add    %al,(%eax,%eax,1)
     e8c:	0e                   	push   %cs
     e8d:	06                   	push   %es
     e8e:	00 00                	add    %al,(%eax)
     e90:	04 01                	add    $0x1,%al
     e92:	1c 01                	sbb    $0x1,%al
     e94:	00 00                	add    %al,(%eax)
     e96:	0c 05                	or     $0x5,%al
     e98:	05 00 00 08 00       	add    $0x80000,%eax
     e9d:	00 00                	add    %al,(%eax)
     e9f:	5b                   	pop    %ebx
     ea0:	09 10                	or     %edx,(%eax)
     ea2:	00 7f 02             	add    %bh,0x2(%edi)
     ea5:	00 00                	add    %al,(%eax)
     ea7:	6a 04                	push   $0x4
     ea9:	00 00                	add    %al,(%eax)
     eab:	02 04 05 69 6e 74 00 	add    0x746e69(,%eax,1),%al
     eb2:	03 04 07             	add    (%edi,%eax,1),%eax
     eb5:	0f 01 00             	sgdtl  (%eax)
     eb8:	00 03                	add    %al,(%ebx)
     eba:	04 05                	add    $0x5,%al
     ebc:	cf                   	iret   
     ebd:	01 00                	add    %eax,(%eax)
     ebf:	00 03                	add    %al,(%ebx)
     ec1:	01 08                	add    %ecx,(%eax)
     ec3:	e4 00                	in     $0x0,%al
     ec5:	00 00                	add    %al,(%eax)
     ec7:	03 01                	add    (%ecx),%eax
     ec9:	06                   	push   %es
     eca:	e6 00                	out    %al,$0x0
     ecc:	00 00                	add    %al,(%eax)
     ece:	03 02                	add    (%edx),%eax
     ed0:	07                   	pop    %es
     ed1:	46                   	inc    %esi
     ed2:	00 00                	add    %al,(%eax)
     ed4:	00 03                	add    %al,(%ebx)
     ed6:	02 05 f1 01 00 00    	add    0x1f1,%al
     edc:	04 75                	add    $0x75,%al
     ede:	33 32                	xor    (%edx),%esi
     ee0:	00 06                	add    %al,(%esi)
     ee2:	0a 2c 00             	or     (%eax,%eax,1),%ch
     ee5:	00 00                	add    %al,(%eax)
     ee7:	03 08                	add    (%eax),%ecx
     ee9:	07                   	pop    %es
     eea:	05 01 00 00 03       	add    $0x3000001,%eax
     eef:	08 05 ca 01 00 00    	or     %al,0x1ca
     ef5:	03 01                	add    (%ecx),%eax
     ef7:	06                   	push   %es
     ef8:	ed                   	in     (%dx),%eax
     ef9:	00 00                	add    %al,(%eax)
     efb:	00 05 b8 04 00 00    	add    %al,0x4b8
     f01:	40                   	inc    %eax
     f02:	02 0e                	add    (%esi),%cl
     f04:	40                   	inc    %eax
     f05:	01 00                	add    %eax,(%eax)
     f07:	00 06                	add    %al,(%esi)
     f09:	64 73 00             	fs jae f0c <multiboot_header-0xff174>
     f0c:	02 10                	add    (%eax),%dl
     f0e:	56                   	push   %esi
     f0f:	00 00                	add    %al,(%eax)
     f11:	00 00                	add    %al,(%eax)
     f13:	06                   	push   %es
     f14:	65 64 69 00 02 11 56 	gs imul $0x561102,%fs:(%eax),%eax
     f1b:	00 
     f1c:	00 00                	add    %al,(%eax)
     f1e:	04 06                	add    $0x6,%al
     f20:	65 73 69             	gs jae f8c <multiboot_header-0xff0f4>
     f23:	00 02                	add    %al,(%edx)
     f25:	11 56 00             	adc    %edx,0x0(%esi)
     f28:	00 00                	add    %al,(%eax)
     f2a:	08 06                	or     %al,(%esi)
     f2c:	65 62 70 00          	bound  %esi,%gs:0x0(%eax)
     f30:	02 11                	add    (%ecx),%dl
     f32:	56                   	push   %esi
     f33:	00 00                	add    %al,(%eax)
     f35:	00 0c 06             	add    %cl,(%esi,%eax,1)
     f38:	65 73 70             	gs jae fab <multiboot_header-0xff0d5>
     f3b:	00 02                	add    %al,(%edx)
     f3d:	11 56 00             	adc    %edx,0x0(%esi)
     f40:	00 00                	add    %al,(%eax)
     f42:	10 06                	adc    %al,(%esi)
     f44:	65 62 78 00          	bound  %edi,%gs:0x0(%eax)
     f48:	02 11                	add    (%ecx),%dl
     f4a:	56                   	push   %esi
     f4b:	00 00                	add    %al,(%eax)
     f4d:	00 14 06             	add    %dl,(%esi,%eax,1)
     f50:	65 64 78 00          	gs fs js f54 <multiboot_header-0xff12c>
     f54:	02 11                	add    (%ecx),%dl
     f56:	56                   	push   %esi
     f57:	00 00                	add    %al,(%eax)
     f59:	00 18                	add    %bl,(%eax)
     f5b:	06                   	push   %es
     f5c:	65 63 78 00          	arpl   %di,%gs:0x0(%eax)
     f60:	02 11                	add    (%ecx),%dl
     f62:	56                   	push   %esi
     f63:	00 00                	add    %al,(%eax)
     f65:	00 1c 06             	add    %bl,(%esi,%eax,1)
     f68:	65 61                	gs popa 
     f6a:	78 00                	js     f6c <multiboot_header-0xff114>
     f6c:	02 11                	add    (%ecx),%dl
     f6e:	56                   	push   %esi
     f6f:	00 00                	add    %al,(%eax)
     f71:	00 20                	add    %ah,(%eax)
     f73:	07                   	pop    %es
     f74:	76 04                	jbe    f7a <multiboot_header-0xff106>
     f76:	00 00                	add    %al,(%eax)
     f78:	02 12                	add    (%edx),%dl
     f7a:	56                   	push   %esi
     f7b:	00 00                	add    %al,(%eax)
     f7d:	00 24 07             	add    %ah,(%edi,%eax,1)
     f80:	9c                   	pushf  
     f81:	04 00                	add    $0x0,%al
     f83:	00 02                	add    %al,(%edx)
     f85:	12 56 00             	adc    0x0(%esi),%dl
     f88:	00 00                	add    %al,(%eax)
     f8a:	28 06                	sub    %al,(%esi)
     f8c:	65 69 70 00 02 13 56 	imul   $0x561302,%gs:0x0(%eax),%esi
     f93:	00 
     f94:	00 00                	add    %al,(%eax)
     f96:	2c 06                	sub    $0x6,%al
     f98:	63 73 00             	arpl   %si,0x0(%ebx)
     f9b:	02 13                	add    (%ebx),%dl
     f9d:	56                   	push   %esi
     f9e:	00 00                	add    %al,(%eax)
     fa0:	00 30                	add    %dh,(%eax)
     fa2:	07                   	pop    %es
     fa3:	95                   	xchg   %eax,%ebp
     fa4:	04 00                	add    $0x0,%al
     fa6:	00 02                	add    %al,(%edx)
     fa8:	13 56 00             	adc    0x0(%esi),%edx
     fab:	00 00                	add    %al,(%eax)
     fad:	34 07                	xor    $0x7,%al
     faf:	68 04 00 00 02       	push   $0x2000004
     fb4:	13 56 00             	adc    0x0(%esi),%edx
     fb7:	00 00                	add    %al,(%eax)
     fb9:	38 06                	cmp    %al,(%esi)
     fbb:	73 73                	jae    1030 <multiboot_header-0xff050>
     fbd:	00 02                	add    %al,(%edx)
     fbf:	13 56 00             	adc    0x0(%esi),%edx
     fc2:	00 00                	add    %al,(%eax)
     fc4:	3c 00                	cmp    $0x0,%al
     fc6:	08 89 04 00 00 02    	or     %cl,0x2000004(%ecx)
     fcc:	14 76                	adc    $0x76,%al
     fce:	00 00                	add    %al,(%eax)
     fd0:	00 09                	add    %cl,(%ecx)
     fd2:	dd 04 00             	fldl   (%eax,%eax,1)
     fd5:	00 01                	add    %al,(%ecx)
     fd7:	0b 5b 09             	or     0x9(%ebx),%ebx
     fda:	10 00                	adc    %al,(%eax)
     fdc:	12 00                	adc    (%eax),%al
     fde:	00 00                	add    %al,(%eax)
     fe0:	01 9c 7d 01 00 00 0a 	add    %ebx,0xa000001(%ebp,%edi,2)
     fe7:	69 72 71 00 01 0b 25 	imul   $0x250b0100,0x71(%edx),%esi
     fee:	00 00                	add    %al,(%eax)
     ff0:	00 02                	add    %al,(%edx)
     ff2:	91                   	xchg   %eax,%ecx
     ff3:	00 0b                	add    %cl,(%ebx)
     ff5:	9e                   	sahf   
     ff6:	05 00 00 01 0b       	add    $0xb010000,%eax
     ffb:	84 01                	test   %al,(%ecx)
     ffd:	00 00                	add    %al,(%eax)
     fff:	02 91 04 00 0c 84    	add    -0x7bf3fffc(%ecx),%dl
    1005:	01 00                	add    %eax,(%eax)
    1007:	00 0d 00 0e 04 7d    	add    %cl,0x7d040e00
    100d:	01 00                	add    %eax,(%eax)
    100f:	00 09                	add    %cl,(%ecx)
    1011:	0b 05 00 00 01 11    	or     0x11010000,%eax
    1017:	6d                   	insl   (%dx),%es:(%edi)
    1018:	09 10                	or     %edx,(%eax)
    101a:	00 13                	add    %dl,(%ebx)
    101c:	00 00                	add    %al,(%eax)
    101e:	00 01                	add    %al,(%ecx)
    1020:	9c                   	pushf  
    1021:	ae                   	scas   %es:(%edi),%al
    1022:	01 00                	add    %eax,(%eax)
    1024:	00 0a                	add    %cl,(%edx)
    1026:	69 72 71 00 01 11 25 	imul   $0x25110100,0x71(%edx),%esi
    102d:	00 00                	add    %al,(%eax)
    102f:	00 02                	add    %al,(%edx)
    1031:	91                   	xchg   %eax,%ecx
    1032:	00 00                	add    %al,(%eax)
    1034:	09 21                	or     %esp,(%ecx)
    1036:	05 00 00 01 1e       	add    $0x1e010000,%eax
    103b:	80 09 10             	orb    $0x10,(%ecx)
    103e:	00 86 00 00 00 01    	add    %al,0x1000000(%esi)
    1044:	9c                   	pushf  
    1045:	1e                   	push   %ds
    1046:	02 00                	add    (%eax),%al
    1048:	00 0f                	add    %cl,(%edi)
    104a:	8f 09                	(bad)  
    104c:	10 00                	adc    %al,(%eax)
    104e:	7b 03                	jnp    1053 <multiboot_header-0xff02d>
    1050:	00 00                	add    %al,(%eax)
    1052:	0f 9d 09             	setge  (%ecx)
    1055:	10 00                	adc    %al,(%eax)
    1057:	7b 03                	jnp    105c <multiboot_header-0xff024>
    1059:	00 00                	add    %al,(%eax)
    105b:	0f a8                	push   %gs
    105d:	09 10                	or     %edx,(%eax)
    105f:	00 7b 03             	add    %bh,0x3(%ebx)
    1062:	00 00                	add    %al,(%eax)
    1064:	0f b6 09             	movzbl (%ecx),%ecx
    1067:	10 00                	adc    %al,(%eax)
    1069:	7b 03                	jnp    106e <multiboot_header-0xff012>
    106b:	00 00                	add    %al,(%eax)
    106d:	0f c1 09             	xadd   %ecx,(%ecx)
    1070:	10 00                	adc    %al,(%eax)
    1072:	7b 03                	jnp    1077 <multiboot_header-0xff009>
    1074:	00 00                	add    %al,(%eax)
    1076:	0f cf                	bswap  %edi
    1078:	09 10                	or     %edx,(%eax)
    107a:	00 7b 03             	add    %bh,0x3(%ebx)
    107d:	00 00                	add    %al,(%eax)
    107f:	0f da 09             	pminub (%ecx),%mm1
    1082:	10 00                	adc    %al,(%eax)
    1084:	7b 03                	jnp    1089 <multiboot_header-0xfeff7>
    1086:	00 00                	add    %al,(%eax)
    1088:	0f e8 09             	psubsb (%ecx),%mm1
    108b:	10 00                	adc    %al,(%eax)
    108d:	7b 03                	jnp    1092 <multiboot_header-0xfefee>
    108f:	00 00                	add    %al,(%eax)
    1091:	0f f3 09             	psllq  (%ecx),%mm1
    1094:	10 00                	adc    %al,(%eax)
    1096:	7b 03                	jnp    109b <multiboot_header-0xfefe5>
    1098:	00 00                	add    %al,(%eax)
    109a:	0f 01 0a             	sidtl  (%edx)
    109d:	10 00                	adc    %al,(%eax)
    109f:	7b 03                	jnp    10a4 <multiboot_header-0xfefdc>
    10a1:	00 00                	add    %al,(%eax)
    10a3:	00 10                	add    %dl,(%eax)
    10a5:	2a 00                	sub    (%eax),%al
    10a7:	00 00                	add    %al,(%eax)
    10a9:	01 2f                	add    %ebp,(%edi)
    10ab:	06                   	push   %es
    10ac:	0a 10                	or     (%eax),%dl
    10ae:	00 55 01             	add    %dl,0x1(%ebp)
    10b1:	00 00                	add    %al,(%eax)
    10b3:	01 9c cd 02 00 00 0f 	add    %ebx,0xf000002(%ebp,%ecx,8)
    10ba:	11 0a                	adc    %ecx,(%edx)
    10bc:	10 00                	adc    %al,(%eax)
    10be:	ae                   	scas   %es:(%edi),%al
    10bf:	01 00                	add    %eax,(%eax)
    10c1:	00 0f                	add    %cl,(%edi)
    10c3:	24 0a                	and    $0xa,%al
    10c5:	10 00                	adc    %al,(%eax)
    10c7:	86 03                	xchg   %al,(%ebx)
    10c9:	00 00                	add    %al,(%eax)
    10cb:	0f 37                	getsec 
    10cd:	0a 10                	or     (%eax),%dl
    10cf:	00 86 03 00 00 0f    	add    %al,0xf000003(%esi)
    10d5:	4d                   	dec    %ebp
    10d6:	0a 10                	or     (%eax),%dl
    10d8:	00 86 03 00 00 0f    	add    %al,0xf000003(%esi)
    10de:	60                   	pusha  
    10df:	0a 10                	or     (%eax),%dl
    10e1:	00 86 03 00 00 0f    	add    %al,0xf000003(%esi)
    10e7:	76 0a                	jbe    10f3 <multiboot_header-0xfef8d>
    10e9:	10 00                	adc    %al,(%eax)
    10eb:	86 03                	xchg   %al,(%ebx)
    10ed:	00 00                	add    %al,(%eax)
    10ef:	0f 89 0a 10 00 86    	jns    860020ff <cursor_x+0x85ef061a>
    10f5:	03 00                	add    (%eax),%eax
    10f7:	00 0f                	add    %cl,(%edi)
    10f9:	9f                   	lahf   
    10fa:	0a 10                	or     (%eax),%dl
    10fc:	00 86 03 00 00 0f    	add    %al,0xf000003(%esi)
    1102:	b2 0a                	mov    $0xa,%dl
    1104:	10 00                	adc    %al,(%eax)
    1106:	86 03                	xchg   %al,(%ebx)
    1108:	00 00                	add    %al,(%eax)
    110a:	0f c8                	bswap  %eax
    110c:	0a 10                	or     (%eax),%dl
    110e:	00 86 03 00 00 0f    	add    %al,0xf000003(%esi)
    1114:	db 0a                	fisttpl (%edx)
    1116:	10 00                	adc    %al,(%eax)
    1118:	86 03                	xchg   %al,(%ebx)
    111a:	00 00                	add    %al,(%eax)
    111c:	0f f1 0a             	psllw  (%edx),%mm1
    111f:	10 00                	adc    %al,(%eax)
    1121:	86 03                	xchg   %al,(%ebx)
    1123:	00 00                	add    %al,(%eax)
    1125:	0f 04                	(bad)  
    1127:	0b 10                	or     (%eax),%edx
    1129:	00 86 03 00 00 0f    	add    %al,0xf000003(%esi)
    112f:	1a 0b                	sbb    (%ebx),%cl
    1131:	10 00                	adc    %al,(%eax)
    1133:	86 03                	xchg   %al,(%ebx)
    1135:	00 00                	add    %al,(%eax)
    1137:	0f 2d 0b             	cvtps2pi (%ebx),%mm1
    113a:	10 00                	adc    %al,(%eax)
    113c:	86 03                	xchg   %al,(%ebx)
    113e:	00 00                	add    %al,(%eax)
    1140:	0f 43 0b             	cmovae (%ebx),%ecx
    1143:	10 00                	adc    %al,(%eax)
    1145:	86 03                	xchg   %al,(%ebx)
    1147:	00 00                	add    %al,(%eax)
    1149:	0f 56 0b             	orps   (%ebx),%xmm1
    114c:	10 00                	adc    %al,(%eax)
    114e:	86 03                	xchg   %al,(%ebx)
    1150:	00 00                	add    %al,(%eax)
    1152:	00 09                	add    %cl,(%ecx)
    1154:	f1                   	icebp  
    1155:	04 00                	add    $0x0,%al
    1157:	00 01                	add    %al,(%ecx)
    1159:	4f                   	dec    %edi
    115a:	5b                   	pop    %ebx
    115b:	0b 10                	or     (%eax),%edx
    115d:	00 7f 00             	add    %bh,0x0(%edi)
    1160:	00 00                	add    %al,(%eax)
    1162:	01 9c 4b 03 00 00 0a 	add    %ebx,0xa000003(%ebx,%ecx,2)
    1169:	72 00                	jb     116b <multiboot_header-0xfef15>
    116b:	01 4f 4b             	add    %ecx,0x4b(%edi)
    116e:	03 00                	add    (%eax),%eax
    1170:	00 02                	add    %al,(%edx)
    1172:	91                   	xchg   %eax,%ecx
    1173:	00 11                	add    %dl,(%ecx)
    1175:	9e                   	sahf   
    1176:	05 00 00 01 52       	add    $0x52010000,%eax
    117b:	84 01                	test   %al,(%ecx)
    117d:	00 00                	add    %al,(%eax)
    117f:	fb                   	sti    
    1180:	03 00                	add    (%eax),%eax
    1182:	00 11                	add    %dl,(%ecx)
    1184:	fe 04 00             	incb   (%eax,%eax,1)
    1187:	00 01                	add    %al,(%ecx)
    1189:	61                   	popa   
    118a:	6f                   	outsl  %ds:(%esi),(%dx)
    118b:	00 00                	add    %al,(%eax)
    118d:	00 0e                	add    %cl,(%esi)
    118f:	04 00                	add    $0x0,%al
    1191:	00 0f                	add    %cl,(%edi)
    1193:	7e 0b                	jle    11a0 <multiboot_header-0xfeee0>
    1195:	10 00                	adc    %al,(%eax)
    1197:	91                   	xchg   %eax,%ecx
    1198:	03 00                	add    (%eax),%eax
    119a:	00 12                	add    %dl,(%edx)
    119c:	80 0b 10             	orb    $0x10,(%ebx)
    119f:	00 02                	add    %al,(%edx)
    11a1:	76 00                	jbe    11a3 <multiboot_header-0xfeedd>
    11a3:	0f 8f 0b 10 00 91    	jg     910021b4 <cursor_x+0x90ef06cf>
    11a9:	03 00                	add    (%eax),%eax
    11ab:	00 0f                	add    %cl,(%edi)
    11ad:	9f                   	lahf   
    11ae:	0b 10                	or     (%eax),%edx
    11b0:	00 9c 03 00 00 0f b6 	add    %bl,-0x49f10000(%ebx,%eax,1)
    11b7:	0b 10                	or     (%eax),%edx
    11b9:	00 7b 03             	add    %bh,0x3(%ebx)
    11bc:	00 00                	add    %al,(%eax)
    11be:	0f c2 0b 10          	cmpps  $0x10,(%ebx),%xmm1
    11c2:	00 91 03 00 00 0f    	add    %dl,0xf000003(%ecx)
    11c8:	d0 0b                	rorb   (%ebx)
    11ca:	10 00                	adc    %al,(%eax)
    11cc:	7b 03                	jnp    11d1 <multiboot_header-0xfeeaf>
    11ce:	00 00                	add    %al,(%eax)
    11d0:	00 0e                	add    %cl,(%esi)
    11d2:	04 40                	add    $0x40,%al
    11d4:	01 00                	add    %eax,(%eax)
    11d6:	00 13                	add    %dl,(%ebx)
    11d8:	68 03 00 00 61       	push   $0x61000003
    11dd:	03 00                	add    (%eax),%eax
    11df:	00 14 61             	add    %dl,(%ecx,%eiz,2)
    11e2:	03 00                	add    (%eax),%eax
    11e4:	00 0f                	add    %cl,(%edi)
    11e6:	00 03                	add    %al,(%ebx)
    11e8:	04 07                	add    $0x7,%al
    11ea:	f5                   	cmc    
    11eb:	02 00                	add    (%eax),%al
    11ed:	00 15 04 16 d0 04    	add    %dl,0x4d01604
    11f3:	00 00                	add    %al,(%eax)
    11f5:	01 04 51             	add    %eax,(%ecx,%edx,2)
    11f8:	03 00                	add    (%eax),%eax
    11fa:	00 05 03 a0 1a 11    	add    %al,0x111aa003
    1200:	00 17                	add    %dl,(%edi)
    1202:	b5 02                	mov    $0x2,%ch
    1204:	00 00                	add    %al,(%eax)
    1206:	b5 02                	mov    $0x2,%ch
    1208:	00 00                	add    %al,(%eax)
    120a:	03 10                	add    (%eax),%edx
    120c:	17                   	pop    %ss
    120d:	21 04 00             	and    %eax,(%eax,%eax,1)
    1210:	00 21                	add    %ah,(%ecx)
    1212:	04 00                	add    $0x0,%al
    1214:	00 04 09             	add    %al,(%ecx,%ecx,1)
    1217:	17                   	pop    %ss
    1218:	c2 04 00             	ret    $0x4
    121b:	00 c2                	add    %al,%dl
    121d:	04 00                	add    $0x0,%al
    121f:	00 05 11 17 5c 04    	add    %al,0x45c1711
    1225:	00 00                	add    %al,(%eax)
    1227:	5c                   	pop    %esp
    1228:	04 00                	add    $0x0,%al
    122a:	00 05 0b 00 d9 00    	add    %al,0xd9000b
    1230:	00 00                	add    %al,(%eax)
    1232:	04 00                	add    $0x0,%al
    1234:	45                   	inc    %ebp
    1235:	07                   	pop    %es
    1236:	00 00                	add    %al,(%eax)
    1238:	04 01                	add    $0x1,%al
    123a:	1c 01                	sbb    $0x1,%al
    123c:	00 00                	add    %al,(%eax)
    123e:	0c 30                	or     $0x30,%al
    1240:	05 00 00 08 00       	add    $0x80000,%eax
    1245:	00 00                	add    %al,(%eax)
    1247:	79 0c                	jns    1255 <multiboot_header-0xfee2b>
    1249:	10 00                	adc    %al,(%eax)
    124b:	15 00 00 00 32       	adc    $0x32000000,%eax
    1250:	05 00 00 02 04       	add    $0x4020000,%eax
    1255:	05 69 6e 74 00       	add    $0x746e69,%eax
    125a:	03 04 07             	add    (%edi,%eax,1),%eax
    125d:	0f 01 00             	sgdtl  (%eax)
    1260:	00 03                	add    %al,(%ebx)
    1262:	04 05                	add    $0x5,%al
    1264:	cf                   	iret   
    1265:	01 00                	add    %eax,(%eax)
    1267:	00 04 75 38 00 02 06 	add    %al,0x6020038(,%esi,2)
    126e:	44                   	inc    %esp
    126f:	00 00                	add    %al,(%eax)
    1271:	00 03                	add    %al,(%ebx)
    1273:	01 08                	add    %ecx,(%eax)
    1275:	e4 00                	in     $0x0,%al
    1277:	00 00                	add    %al,(%eax)
    1279:	03 01                	add    (%ecx),%eax
    127b:	06                   	push   %es
    127c:	e6 00                	out    %al,$0x0
    127e:	00 00                	add    %al,(%eax)
    1280:	04 75                	add    $0x75,%al
    1282:	31 36                	xor    %esi,(%esi)
    1284:	00 02                	add    %al,(%edx)
    1286:	08 5d 00             	or     %bl,0x0(%ebp)
    1289:	00 00                	add    %al,(%eax)
    128b:	03 02                	add    (%edx),%eax
    128d:	07                   	pop    %es
    128e:	46                   	inc    %esi
    128f:	00 00                	add    %al,(%eax)
    1291:	00 03                	add    %al,(%ebx)
    1293:	02 05 f1 01 00 00    	add    0x1f1,%al
    1299:	03 08                	add    (%eax),%ecx
    129b:	07                   	pop    %es
    129c:	05 01 00 00 03       	add    $0x3000001,%eax
    12a1:	08 05 ca 01 00 00    	or     %al,0x1ca
    12a7:	05 b5 02 00 00       	add    $0x2b5,%eax
    12ac:	01 03                	add    %eax,(%ebx)
    12ae:	79 0c                	jns    12bc <multiboot_header-0xfedc4>
    12b0:	10 00                	adc    %al,(%eax)
    12b2:	0c 00                	or     $0x0,%al
    12b4:	00 00                	add    %al,(%eax)
    12b6:	01 9c ab 00 00 00 06 	add    %ebx,0x6000000(%ebx,%ebp,4)
    12bd:	2b 05 00 00 01 03    	sub    0x3010000,%eax
    12c3:	52                   	push   %edx
    12c4:	00 00                	add    %al,(%eax)
    12c6:	00 02                	add    %al,(%edx)
    12c8:	91                   	xchg   %eax,%ecx
    12c9:	00 07                	add    %al,(%edi)
    12cb:	76 61                	jbe    132e <multiboot_header-0xfed52>
    12cd:	6c                   	insb   (%dx),%es:(%edi)
    12ce:	00 01                	add    %al,(%ecx)
    12d0:	03 3a                	add    (%edx),%edi
    12d2:	00 00                	add    %al,(%eax)
    12d4:	00 02                	add    %al,(%edx)
    12d6:	91                   	xchg   %eax,%ecx
    12d7:	04 00                	add    $0x0,%al
    12d9:	08 69 6e             	or     %ch,0x6e(%ecx)
    12dc:	62 00                	bound  %eax,(%eax)
    12de:	01 0d 3a 00 00 00    	add    %ecx,0x3a
    12e4:	85 0c 10             	test   %ecx,(%eax,%edx,1)
    12e7:	00 09                	add    %cl,(%ecx)
    12e9:	00 00                	add    %al,(%eax)
    12eb:	00 01                	add    %al,(%ecx)
    12ed:	9c                   	pushf  
    12ee:	06                   	push   %es
    12ef:	2b 05 00 00 01 0d    	sub    0xd010000,%eax
    12f5:	52                   	push   %edx
    12f6:	00 00                	add    %al,(%eax)
    12f8:	00 02                	add    %al,(%edx)
    12fa:	91                   	xchg   %eax,%ecx
    12fb:	00 09                	add    %cl,(%ecx)
    12fd:	72 65                	jb     1364 <multiboot_header-0xfed1c>
    12ff:	73 00                	jae    1301 <multiboot_header-0xfed7f>
    1301:	01 11                	add    %edx,(%ecx)
    1303:	3a 00                	cmp    (%eax),%al
    1305:	00 00                	add    %al,(%eax)
    1307:	01 50 00             	add    %edx,0x0(%eax)
    130a:	00 5d 01             	add    %bl,0x1(%ebp)
    130d:	00 00                	add    %al,(%eax)
    130f:	04 00                	add    $0x0,%al
    1311:	dd 07                	fldl   (%edi)
    1313:	00 00                	add    %al,(%eax)
    1315:	04 01                	add    $0x1,%al
    1317:	1c 01                	sbb    $0x1,%al
    1319:	00 00                	add    %al,(%eax)
    131b:	0c 5c                	or     $0x5c,%al
    131d:	05 00 00 08 00       	add    $0x80000,%eax
    1322:	00 00                	add    %al,(%eax)
    1324:	8e 0c 10             	mov    (%eax,%edx,1),%cs
    1327:	00 94 00 00 00 7e 05 	add    %dl,0x57e0000(%eax,%eax,1)
    132e:	00 00                	add    %al,(%eax)
    1330:	02 01                	add    (%ecx),%al
    1332:	06                   	push   %es
    1333:	ed                   	in     (%dx),%eax
    1334:	00 00                	add    %al,(%eax)
    1336:	00 03                	add    %al,(%ebx)
    1338:	04 05                	add    $0x5,%al
    133a:	69 6e 74 00 02 04 07 	imul   $0x7040200,0x74(%esi),%ebp
    1341:	0f 01 00             	sgdtl  (%eax)
    1344:	00 02                	add    %al,(%edx)
    1346:	04 05                	add    $0x5,%al
    1348:	cf                   	iret   
    1349:	01 00                	add    %eax,(%eax)
    134b:	00 02                	add    %al,(%edx)
    134d:	01 08                	add    %ecx,(%eax)
    134f:	e4 00                	in     $0x0,%al
    1351:	00 00                	add    %al,(%eax)
    1353:	02 01                	add    (%ecx),%al
    1355:	06                   	push   %es
    1356:	e6 00                	out    %al,$0x0
    1358:	00 00                	add    %al,(%eax)
    135a:	02 02                	add    (%edx),%al
    135c:	07                   	pop    %es
    135d:	46                   	inc    %esi
    135e:	00 00                	add    %al,(%eax)
    1360:	00 02                	add    %al,(%edx)
    1362:	02 05 f1 01 00 00    	add    0x1f1,%al
    1368:	02 08                	add    (%eax),%cl
    136a:	07                   	pop    %es
    136b:	05 01 00 00 02       	add    $0x2000001,%eax
    1370:	08 05 ca 01 00 00    	or     %al,0x1ca
    1376:	04 6d                	add    $0x6d,%al
    1378:	05 00 00 01 0f       	add    $0xf010000,%eax
    137d:	8e 0c 10             	mov    (%eax,%edx,1),%cs
    1380:	00 2d 00 00 00 01    	add    %ch,0x1000000
    1386:	9c                   	pushf  
    1387:	8a 00                	mov    (%eax),%al
    1389:	00 00                	add    %al,(%eax)
    138b:	05 b6 0c 10 00       	add    $0x100cb6,%eax
    1390:	3f                   	aas    
    1391:	01 00                	add    %eax,(%eax)
    1393:	00 00                	add    %al,(%eax)
    1395:	06                   	push   %es
    1396:	50                   	push   %eax
    1397:	05 00 00 01 04       	add    $0x4010000,%eax
    139c:	bb 0c 10 00 3d       	mov    $0x3d00100c,%ebx
    13a1:	00 00                	add    %al,(%eax)
    13a3:	00 01                	add    %al,(%ecx)
    13a5:	9c                   	pushf  
    13a6:	d7                   	xlat   %ds:(%ebx)
    13a7:	00 00                	add    %al,(%eax)
    13a9:	00 07                	add    %al,(%edi)
    13ab:	68 7a 00 01 04       	push   $0x401007a
    13b0:	2c 00                	sub    $0x0,%al
    13b2:	00 00                	add    %al,(%eax)
    13b4:	02 91 00 08 48 05    	add    0x5480800(%ecx),%dl
    13ba:	00 00                	add    %al,(%eax)
    13bc:	01 06                	add    %eax,(%esi)
    13be:	2c 00                	sub    $0x0,%al
    13c0:	00 00                	add    %al,(%eax)
    13c2:	30 04 00             	xor    %al,(%eax,%eax,1)
    13c5:	00 05 d6 0c 10 00    	add    %al,0x100cd6
    13cb:	4a                   	dec    %edx
    13cc:	01 00                	add    %eax,(%eax)
    13ce:	00 05 e6 0c 10 00    	add    %al,0x100ce6
    13d4:	4a                   	dec    %edx
    13d5:	01 00                	add    %eax,(%eax)
    13d7:	00 05 f0 0c 10 00    	add    %al,0x100cf0
    13dd:	4a                   	dec    %edx
    13de:	01 00                	add    %eax,(%eax)
    13e0:	00 00                	add    %al,(%eax)
    13e2:	04 f7                	add    $0xf7,%al
    13e4:	00 00                	add    %al,(%eax)
    13e6:	00 01                	add    %al,(%ecx)
    13e8:	19 f8                	sbb    %edi,%eax
    13ea:	0c 10                	or     $0x10,%al
    13ec:	00 17                	add    %dl,(%edi)
    13ee:	00 00                	add    %al,(%eax)
    13f0:	00 01                	add    %al,(%ecx)
    13f2:	9c                   	pushf  
    13f3:	f6 00 00             	testb  $0x0,(%eax)
    13f6:	00 05 0a 0d 10 00    	add    %al,0x100d0a
    13fc:	55                   	push   %ebp
    13fd:	01 00                	add    %eax,(%eax)
    13ff:	00 00                	add    %al,(%eax)
    1401:	06                   	push   %es
    1402:	62 05 00 00 01 1e    	bound  %eax,0x1e010000
    1408:	0f 0d 10             	prefetchwt1 (%eax)
    140b:	00 13                	add    %dl,(%ebx)
    140d:	00 00                	add    %al,(%eax)
    140f:	00 01                	add    %al,(%ecx)
    1411:	9c                   	pushf  
    1412:	27                   	daa    
    1413:	01 00                	add    %eax,(%eax)
    1415:	00 09                	add    %cl,(%ecx)
    1417:	3b 05 00 00 01 1e    	cmp    0x1e010000,%eax
    141d:	2c 00                	sub    $0x0,%al
    141f:	00 00                	add    %al,(%eax)
    1421:	02 91 00 0a 41 05    	add    0x5410a00(%ecx),%dl
    1427:	00 00                	add    %al,(%eax)
    1429:	01 20                	add    %esp,(%eax)
    142b:	27                   	daa    
    142c:	01 00                	add    %eax,(%eax)
    142e:	00 01                	add    %al,(%ecx)
    1430:	52                   	push   %edx
    1431:	00 02                	add    %al,(%edx)
    1433:	04 07                	add    $0x7,%al
    1435:	0a 01                	or     (%ecx),%al
    1437:	00 00                	add    %al,(%eax)
    1439:	0b 35 05 00 00 01    	or     0x1000005,%esi
    143f:	0c 27                	or     $0x27,%al
    1441:	01 00                	add    %eax,(%eax)
    1443:	00 05 03 e0 1a 11    	add    %al,0x111ae003
    1449:	00 0c c2             	add    %cl,(%edx,%eax,8)
    144c:	04 00                	add    $0x0,%al
    144e:	00 c2                	add    %al,%dl
    1450:	04 00                	add    $0x0,%al
    1452:	00 02                	add    %al,(%edx)
    1454:	11 0c b5 02 00 00 b5 	adc    %ecx,-0x4afffffe(,%esi,4)
    145b:	02 00                	add    (%eax),%al
    145d:	00 03                	add    %al,(%ebx)
    145f:	10 0c dd 04 00 00 dd 	adc    %cl,-0x22fffffc(,%ebx,8)
    1466:	04 00                	add    $0x0,%al
    1468:	00 04 1e             	add    %al,(%esi,%ebx,1)
    146b:	00 37                	add    %dh,(%edi)
    146d:	01 00                	add    %eax,(%eax)
    146f:	00 04 00             	add    %al,(%eax,%eax,1)
    1472:	a2 08 00 00 04       	mov    %al,0x4000008
    1477:	01 1c 01             	add    %ebx,(%ecx,%eax,1)
    147a:	00 00                	add    %al,(%eax)
    147c:	0c 81                	or     $0x81,%al
    147e:	05 00 00 08 00       	add    $0x80000,%eax
    1483:	00 00                	add    %al,(%eax)
    1485:	22 0d 10 00 5c 00    	and    0x5c0010,%cl
    148b:	00 00                	add    %al,(%eax)
    148d:	01 06                	add    %eax,(%esi)
    148f:	00 00                	add    %al,(%eax)
    1491:	02 01                	add    (%ecx),%al
    1493:	06                   	push   %es
    1494:	ed                   	in     (%dx),%eax
    1495:	00 00                	add    %al,(%eax)
    1497:	00 03                	add    %al,(%ebx)
    1499:	04 05                	add    $0x5,%al
    149b:	69 6e 74 00 02 04 07 	imul   $0x7040200,0x74(%esi),%ebp
    14a2:	0f 01 00             	sgdtl  (%eax)
    14a5:	00 02                	add    %al,(%edx)
    14a7:	04 05                	add    $0x5,%al
    14a9:	cf                   	iret   
    14aa:	01 00                	add    %eax,(%eax)
    14ac:	00 02                	add    %al,(%edx)
    14ae:	01 08                	add    %ecx,(%eax)
    14b0:	e4 00                	in     $0x0,%al
    14b2:	00 00                	add    %al,(%eax)
    14b4:	02 01                	add    (%ecx),%al
    14b6:	06                   	push   %es
    14b7:	e6 00                	out    %al,$0x0
    14b9:	00 00                	add    %al,(%eax)
    14bb:	02 02                	add    (%edx),%al
    14bd:	07                   	pop    %es
    14be:	46                   	inc    %esi
    14bf:	00 00                	add    %al,(%eax)
    14c1:	00 02                	add    %al,(%edx)
    14c3:	02 05 f1 01 00 00    	add    0x1f1,%al
    14c9:	02 08                	add    (%eax),%cl
    14cb:	07                   	pop    %es
    14cc:	05 01 00 00 02       	add    $0x2000001,%eax
    14d1:	08 05 ca 01 00 00    	or     %al,0x1ca
    14d7:	04 95                	add    $0x95,%al
    14d9:	05 00 00 01 33       	add    $0x33010000,%eax
    14de:	22 0d 10 00 45 00    	and    0x450010,%cl
    14e4:	00 00                	add    %al,(%eax)
    14e6:	01 9c c2 00 00 00 05 	add    %ebx,0x5000000(%edx,%eax,8)
    14ed:	8c 05 00 00 01 35    	mov    %es,0x35010000
    14f3:	41                   	inc    %ecx
    14f4:	00 00                	add    %al,(%eax)
    14f6:	00 62 04             	add    %ah,0x4(%edx)
    14f9:	00 00                	add    %al,(%eax)
    14fb:	06                   	push   %es
    14fc:	44                   	inc    %esp
    14fd:	0d 10 00 1e 00       	or     $0x1e0010,%eax
    1502:	00 00                	add    %al,(%eax)
    1504:	b8 00 00 00 07       	mov    $0x7000000,%eax
    1509:	73 00                	jae    150b <multiboot_header-0xfeb75>
    150b:	01 3e                	add    %edi,(%esi)
    150d:	c2 00 00             	ret    $0x0
    1510:	00 08                	add    %cl,(%eax)
    1512:	57                   	push   %edi
    1513:	0d 10 00 19 01       	or     $0x1190010,%eax
    1518:	00 00                	add    %al,(%eax)
    151a:	08 5f 0d             	or     %bl,0xd(%edi)
    151d:	10 00                	adc    %al,(%eax)
    151f:	19 01                	sbb    %eax,(%ecx)
    1521:	00 00                	add    %al,(%eax)
    1523:	00 08                	add    %cl,(%eax)
    1525:	30 0d 10 00 24 01    	xor    %cl,0x1240010
    152b:	00 00                	add    %al,(%eax)
    152d:	00 09                	add    %cl,(%ecx)
    152f:	04 25                	add    $0x25,%al
    1531:	00 00                	add    %al,(%eax)
    1533:	00 04 82             	add    %al,(%edx,%eax,4)
    1536:	00 00                	add    %al,(%eax)
    1538:	00 01                	add    %al,(%ecx)
    153a:	43                   	inc    %ebx
    153b:	67 0d 10 00 17 00    	addr16 or $0x170010,%eax
    1541:	00 00                	add    %al,(%eax)
    1543:	01 9c e7 00 00 00 08 	add    %ebx,0x8000000(%edi,%eiz,8)
    154a:	79 0d                	jns    1559 <multiboot_header-0xfeb27>
    154c:	10 00                	adc    %al,(%eax)
    154e:	2f                   	das    
    154f:	01 00                	add    %eax,(%eax)
    1551:	00 00                	add    %al,(%eax)
    1553:	0a fe                	or     %dh,%bh
    1555:	00 00                	add    %al,(%eax)
    1557:	00 f7                	add    %dh,%bh
    1559:	00 00                	add    %al,(%eax)
    155b:	00 0b                	add    %cl,(%ebx)
    155d:	f7 00 00 00 7f 00    	testl  $0x7f0000,(%eax)
    1563:	02 04 07             	add    (%edi,%eax,1),%al
    1566:	f5                   	cmc    
    1567:	02 00                	add    (%eax),%al
    1569:	00 0c 41             	add    %cl,(%ecx,%eax,2)
    156c:	00 00                	add    %al,(%eax)
    156e:	00 0d 7b 05 00 00    	add    %cl,0x57b
    1574:	01 0a                	add    %ecx,(%edx)
    1576:	14 01                	adc    $0x1,%al
    1578:	00 00                	add    %al,(%eax)
    157a:	05 03 40 10 10       	add    $0x10104003,%eax
    157f:	00 0c e7             	add    %cl,(%edi,%eiz,8)
    1582:	00 00                	add    %al,(%eax)
    1584:	00 0e                	add    %cl,(%esi)
    1586:	c2 04 00             	ret    $0x4
    1589:	00 c2                	add    %al,%dl
    158b:	04 00                	add    $0x0,%al
    158d:	00 02                	add    %al,(%edx)
    158f:	11 0f                	adc    %ecx,(%edi)
    1591:	69 6e 62 00 69 6e 62 	imul   $0x626e6900,0x62(%esi),%ebp
    1598:	00 04 11             	add    %al,(%ecx,%edx,1)
    159b:	0e                   	push   %cs
    159c:	dd 04 00             	fldl   (%eax,%eax,1)
    159f:	00 dd                	add    %bl,%ch
    15a1:	04 00                	add    $0x0,%al
    15a3:	00 03                	add    %al,(%ebx)
    15a5:	1e                   	push   %ds
    15a6:	00 71 03             	add    %dh,0x3(%ecx)
    15a9:	00 00                	add    %al,(%eax)
    15ab:	04 00                	add    $0x0,%al
    15ad:	6b 09 00             	imul   $0x0,(%ecx),%ecx
    15b0:	00 04 01             	add    %al,(%ecx,%eax,1)
    15b3:	1c 01                	sbb    $0x1,%al
    15b5:	00 00                	add    %al,(%eax)
    15b7:	0c d7                	or     $0xd7,%al
    15b9:	05 00 00 08 00       	add    $0x80000,%eax
    15be:	00 00                	add    %al,(%eax)
    15c0:	7e 0d                	jle    15cf <multiboot_header-0xfeab1>
    15c2:	10 00                	adc    %al,(%eax)
    15c4:	6d                   	insl   (%dx),%es:(%edi)
    15c5:	02 00                	add    (%eax),%al
    15c7:	00 70 06             	add    %dh,0x6(%eax)
    15ca:	00 00                	add    %al,(%eax)
    15cc:	02 2d 06 00 00 02    	add    0x2000006,%ch
    15d2:	09 30                	or     %esi,(%eax)
    15d4:	00 00                	add    %al,(%eax)
    15d6:	00 03                	add    %al,(%ebx)
    15d8:	04 07                	add    $0x7,%al
    15da:	0f 01 00             	sgdtl  (%eax)
    15dd:	00 02                	add    %al,(%edx)
    15df:	5c                   	pop    %esp
    15e0:	06                   	push   %es
    15e1:	00 00                	add    %al,(%eax)
    15e3:	02 0a                	add    (%edx),%cl
    15e5:	42                   	inc    %edx
    15e6:	00 00                	add    %al,(%eax)
    15e8:	00 04 04             	add    %al,(%esp,%eax,1)
    15eb:	05 69 6e 74 00       	add    $0x746e69,%eax
    15f0:	02 7d 06             	add    0x6(%ebp),%bh
    15f3:	00 00                	add    %al,(%eax)
    15f5:	02 0b                	add    (%ebx),%cl
    15f7:	54                   	push   %esp
    15f8:	00 00                	add    %al,(%eax)
    15fa:	00 03                	add    %al,(%ebx)
    15fc:	02 07                	add    (%edi),%al
    15fe:	46                   	inc    %esi
    15ff:	00 00                	add    %al,(%eax)
    1601:	00 03                	add    %al,(%ebx)
    1603:	02 05 f1 01 00 00    	add    0x1f1,%al
    1609:	02 27                	add    (%edi),%ah
    160b:	06                   	push   %es
    160c:	00 00                	add    %al,(%eax)
    160e:	02 0d 6d 00 00 00    	add    0x6d,%cl
    1614:	03 01                	add    (%ecx),%eax
    1616:	08 e4                	or     %ah,%ah
    1618:	00 00                	add    %al,(%eax)
    161a:	00 03                	add    %al,(%ebx)
    161c:	01 06                	add    %eax,(%esi)
    161e:	ed                   	in     (%dx),%eax
    161f:	00 00                	add    %al,(%eax)
    1621:	00 03                	add    %al,(%ebx)
    1623:	04 05                	add    $0x5,%al
    1625:	cf                   	iret   
    1626:	01 00                	add    %eax,(%eax)
    1628:	00 03                	add    %al,(%ebx)
    162a:	01 06                	add    %eax,(%esi)
    162c:	e6 00                	out    %al,$0x0
    162e:	00 00                	add    %al,(%eax)
    1630:	03 08                	add    (%eax),%ecx
    1632:	07                   	pop    %es
    1633:	05 01 00 00 03       	add    $0x3000001,%eax
    1638:	08 05 ca 01 00 00    	or     %al,0x1ca
    163e:	05 63 06 00 00       	add    $0x663,%eax
    1643:	01 0e                	add    %ecx,(%esi)
    1645:	7e 0d                	jle    1654 <multiboot_header-0xfea2c>
    1647:	10 00                	adc    %al,(%eax)
    1649:	5f                   	pop    %edi
    164a:	00 00                	add    %al,(%eax)
    164c:	00 01                	add    %al,(%ecx)
    164e:	9c                   	pushf  
    164f:	e0 00                	loopne 1651 <multiboot_header-0xfea2f>
    1651:	00 00                	add    %al,(%eax)
    1653:	06                   	push   %es
    1654:	b1 05                	mov    $0x5,%cl
    1656:	00 00                	add    %al,(%eax)
    1658:	01 11                	add    %edx,(%ecx)
    165a:	49                   	dec    %ecx
    165b:	00 00                	add    %al,(%eax)
    165d:	00 88 04 00 00 07    	add    %cl,0x7000004(%eax)
    1663:	a7                   	cmpsl  %es:(%edi),%ds:(%esi)
    1664:	0d 10 00 69 03       	or     $0x3690010,%eax
    1669:	00 00                	add    %al,(%eax)
    166b:	07                   	pop    %es
    166c:	ba 0d 10 00 69       	mov    $0x6900100d,%edx
    1671:	03 00                	add    (%eax),%eax
    1673:	00 07                	add    %al,(%edi)
    1675:	c8 0d 10 00          	enter  $0x100d,$0x0
    1679:	69 03 00 00 07 d5    	imul   $0xd5070000,(%ebx),%eax
    167f:	0d 10 00 69 03       	or     $0x3690010,%eax
    1684:	00 00                	add    %al,(%eax)
    1686:	00 08                	add    %cl,(%eax)
    1688:	c0 05 00 00 01 19 01 	rolb   $0x1,0x19010000
    168f:	0e                   	push   %cs
    1690:	01 00                	add    %eax,(%eax)
    1692:	00 09                	add    %cl,(%ecx)
    1694:	6f                   	outsl  %ds:(%esi),(%dx)
    1695:	06                   	push   %es
    1696:	00 00                	add    %al,(%eax)
    1698:	01 1d 62 00 00 00    	add    %ebx,0x62
    169e:	09 d1                	or     %edx,%ecx
    16a0:	05 00 00 01 1e       	add    $0x1e010000,%eax
    16a5:	49                   	dec    %ecx
    16a6:	00 00                	add    %al,(%eax)
    16a8:	00 0a                	add    %cl,(%edx)
    16aa:	0b 69 00             	or     0x0(%ecx),%ebp
    16ad:	01 25 42 00 00 00    	add    %esp,0x42
    16b3:	00 00                	add    %al,(%eax)
    16b5:	0c 5c                	or     $0x5c,%al
    16b7:	04 00                	add    $0x0,%al
    16b9:	00 01                	add    %al,(%ecx)
    16bb:	37                   	aaa    
    16bc:	dd 0d 10 00 d3 00    	fisttpll 0xd30010
    16c2:	00 00                	add    %al,(%eax)
    16c4:	01 9c b7 01 00 00 0d 	add    %ebx,0xd000001(%edi,%esi,4)
    16cb:	63 00                	arpl   %ax,(%eax)
    16cd:	01 37                	add    %esi,(%edi)
    16cf:	74 00                	je     16d1 <multiboot_header-0xfe9af>
    16d1:	00 00                	add    %al,(%eax)
    16d3:	02 91 00 0e 1c 06    	add    0x61c0e00(%ecx),%dl
    16d9:	00 00                	add    %al,(%eax)
    16db:	01 3a                	add    %edi,(%edx)
    16dd:	62 00                	bound  %eax,(%eax)
    16df:	00 00                	add    %al,(%eax)
    16e1:	00 0e                	add    %cl,(%esi)
    16e3:	a6                   	cmpsb  %es:(%edi),%ds:(%esi)
    16e4:	05 00 00 01 3b       	add    $0x3b010000,%eax
    16e9:	62 00                	bound  %eax,(%eax)
    16eb:	00 00                	add    %al,(%eax)
    16ed:	0f 0e                	femms  
    16ef:	6f                   	outsl  %ds:(%esi),(%dx)
    16f0:	06                   	push   %es
    16f1:	00 00                	add    %al,(%eax)
    16f3:	01 3f                	add    %edi,(%edi)
    16f5:	62 00                	bound  %eax,(%eax)
    16f7:	00 00                	add    %al,(%eax)
    16f9:	0f                   	(bad)  
    16fa:	0f c7                	(bad)  
    16fc:	05 00 00 01 42       	add    $0x42010000,%eax
    1701:	49                   	dec    %ecx
    1702:	00 00                	add    %al,(%eax)
    1704:	00 00                	add    %al,(%eax)
    1706:	0f 06                	clts   
    1708:	f3 05 00 00 01 43    	repz add $0x43010000,%eax
    170e:	b7 01                	mov    $0x1,%bh
    1710:	00 00                	add    %al,(%eax)
    1712:	9b                   	fwait
    1713:	04 00                	add    $0x0,%al
    1715:	00 10                	add    %dl,(%eax)
    1717:	e0 00                	loopne 1719 <multiboot_header-0xfe967>
    1719:	00 00                	add    %al,(%eax)
    171b:	6f                   	outsl  %ds:(%esi),(%dx)
    171c:	0e                   	push   %cs
    171d:	10 00                	adc    %al,(%eax)
    171f:	3a 00                	cmp    (%eax),%al
    1721:	00 00                	add    %al,(%eax)
    1723:	01 6f ad             	add    %ebp,-0x53(%edi)
    1726:	01 00                	add    %eax,(%eax)
    1728:	00 11                	add    %dl,(%ecx)
    172a:	6f                   	outsl  %ds:(%esi),(%dx)
    172b:	0e                   	push   %cs
    172c:	10 00                	adc    %al,(%eax)
    172e:	3a 00                	cmp    (%eax),%al
    1730:	00 00                	add    %al,(%eax)
    1732:	12 ec                	adc    %ah,%ch
    1734:	00 00                	add    %al,(%eax)
    1736:	00 0f                	add    %cl,(%edi)
    1738:	13 f7                	adc    %edi,%esi
    173a:	00 00                	add    %al,(%eax)
    173c:	00 20                	add    %ah,(%eax)
    173e:	0f 11 78 0e          	movups %xmm7,0xe(%eax)
    1742:	10 00                	adc    %al,(%eax)
    1744:	31 00                	xor    %eax,(%eax)
    1746:	00 00                	add    %al,(%eax)
    1748:	14 03                	adc    $0x3,%al
    174a:	01 00                	add    %eax,(%eax)
    174c:	00 f1                	add    %dh,%cl
    174e:	04 00                	add    $0x0,%al
    1750:	00 00                	add    %al,(%eax)
    1752:	00 00                	add    %al,(%eax)
    1754:	15 b0 0e 10 00       	adc    $0x100eb0,%eax
    1759:	97                   	xchg   %eax,%edi
    175a:	00 00                	add    %al,(%eax)
    175c:	00 00                	add    %al,(%eax)
    175e:	16                   	push   %ss
    175f:	04 49                	add    $0x49,%al
    1761:	00 00                	add    %al,(%eax)
    1763:	00 17                	add    %dl,(%edi)
    1765:	05 06 00 00 01       	add    $0x1000006,%eax
    176a:	76 b0                	jbe    171c <multiboot_header-0xfe964>
    176c:	0e                   	push   %cs
    176d:	10 00                	adc    %al,(%eax)
    176f:	2d 00 00 00 01       	sub    $0x1000000,%eax
    1774:	9c                   	pushf  
    1775:	02 02                	add    (%edx),%al
    1777:	00 00                	add    %al,(%eax)
    1779:	0e                   	push   %cs
    177a:	6f                   	outsl  %ds:(%esi),(%dx)
    177b:	06                   	push   %es
    177c:	00 00                	add    %al,(%eax)
    177e:	01 79 62             	add    %edi,0x62(%ecx)
    1781:	00 00                	add    %al,(%eax)
    1783:	00 0f                	add    %cl,(%edi)
    1785:	0f d1 05 00 00 01 7a 	psrlw  0x7a010000,%mm0
    178c:	49                   	dec    %ecx
    178d:	00 00                	add    %al,(%eax)
    178f:	00 20                	add    %ah,(%eax)
    1791:	0f 18 69 00          	nop/reserved 0x0(%ecx)
    1795:	01 7c 42 00          	add    %edi,0x0(%edx,%eax,2)
    1799:	00 00                	add    %al,(%eax)
    179b:	04 05                	add    $0x5,%al
    179d:	00 00                	add    %al,(%eax)
    179f:	15 dd 0e 10 00       	adc    $0x100edd,%eax
    17a4:	97                   	xchg   %eax,%edi
    17a5:	00 00                	add    %al,(%eax)
    17a7:	00 00                	add    %al,(%eax)
    17a9:	0c c2                	or     $0xc2,%al
    17ab:	04 00                	add    $0x0,%al
    17ad:	00 01                	add    %al,(%ecx)
    17af:	89 dd                	mov    %ebx,%ebp
    17b1:	0e                   	push   %cs
    17b2:	10 00                	adc    %al,(%eax)
    17b4:	24 00                	and    $0x0,%al
    17b6:	00 00                	add    %al,(%eax)
    17b8:	01 9c 3a 02 00 00 0d 	add    %ebx,0xd000002(%edx,%edi,1)
    17bf:	63 00                	arpl   %ax,(%eax)
    17c1:	01 89 3a 02 00 00    	add    %ecx,0x23a(%ecx)
    17c7:	02 91 00 18 69 00    	add    0x691800(%ecx),%dl
    17cd:	01 8b 42 00 00 00    	add    %ecx,0x42(%ebx)
    17d3:	23 05 00 00 07 f7    	and    0xf7070000,%eax
    17d9:	0e                   	push   %cs
    17da:	10 00                	adc    %al,(%eax)
    17dc:	0e                   	push   %cs
    17dd:	01 00                	add    %eax,(%eax)
    17df:	00 00                	add    %al,(%eax)
    17e1:	16                   	push   %ss
    17e2:	04 74                	add    $0x74,%al
    17e4:	00 00                	add    %al,(%eax)
    17e6:	00 0c 41             	add    %cl,(%ecx,%eax,2)
    17e9:	06                   	push   %es
    17ea:	00 00                	add    %al,(%eax)
    17ec:	01 92 01 0f 10 00    	add    %edx,0x100f01(%edx)
    17f2:	7e 00                	jle    17f4 <multiboot_header-0xfe88c>
    17f4:	00 00                	add    %al,(%eax)
    17f6:	01 9c a8 02 00 00 0d 	add    %ebx,0xd000002(%eax,%ebp,4)
    17fd:	6e                   	outsb  %ds:(%esi),(%dx)
    17fe:	00 01                	add    %al,(%ecx)
    1800:	92                   	xchg   %eax,%edx
    1801:	25 00 00 00 02       	and    $0x2000000,%eax
    1806:	91                   	xchg   %eax,%ecx
    1807:	00 18                	add    %bl,(%eax)
    1809:	74 6d                	je     1878 <multiboot_header-0xfe808>
    180b:	70 00                	jo     180d <multiboot_header-0xfe873>
    180d:	01 94 37 00 00 00 7d 	add    %edx,0x7d000000(%edi,%esi,1)
    1814:	05 00 00 06 13       	add    $0x13060000,%eax
    1819:	06                   	push   %es
    181a:	00 00                	add    %al,(%eax)
    181c:	01 98 74 00 00 00    	add    %ebx,0x74(%eax)
    1822:	29 06                	sub    %eax,(%esi)
    1824:	00 00                	add    %al,(%eax)
    1826:	18 69 00             	sbb    %ch,0x0(%ecx)
    1829:	01 9a 42 00 00 00    	add    %ebx,0x42(%edx)
    182f:	49                   	dec    %ecx
    1830:	06                   	push   %es
    1831:	00 00                	add    %al,(%eax)
    1833:	07                   	pop    %es
    1834:	1b 0f                	sbb    (%edi),%ecx
    1836:	10 00                	adc    %al,(%eax)
    1838:	02 02                	add    (%edx),%al
    183a:	00 00                	add    %al,(%eax)
    183c:	07                   	pop    %es
    183d:	52                   	push   %edx
    183e:	0f 10 00             	movups (%eax),%xmm0
    1841:	0e                   	push   %cs
    1842:	01 00                	add    %eax,(%eax)
    1844:	00 15 7f 0f 10 00    	add    %dl,0x100f7f
    184a:	0e                   	push   %cs
    184b:	01 00                	add    %eax,(%eax)
    184d:	00 00                	add    %al,(%eax)
    184f:	0c e1                	or     $0xe1,%al
    1851:	05 00 00 01 bb       	add    $0xbb010000,%eax
    1856:	7f 0f                	jg     1867 <multiboot_header-0xfe819>
    1858:	10 00                	adc    %al,(%eax)
    185a:	6c                   	insb   (%dx),%es:(%edi)
    185b:	00 00                	add    %al,(%eax)
    185d:	00 01                	add    %al,(%ecx)
    185f:	9c                   	pushf  
    1860:	1f                   	pop    %ds
    1861:	03 00                	add    (%eax),%eax
    1863:	00 0d 6e 00 01 bb    	add    %cl,0xbb01006e
    1869:	25 00 00 00 02       	and    $0x2000000,%eax
    186e:	91                   	xchg   %eax,%ecx
    186f:	00 18                	add    %bl,(%eax)
    1871:	61                   	popa   
    1872:	63 63 00             	arpl   %sp,0x0(%ebx)
    1875:	01 c4                	add    %eax,%esp
    1877:	37                   	aaa    
    1878:	00 00                	add    %al,(%eax)
    187a:	00 80 06 00 00 19    	add    %al,0x19000006(%eax)
    1880:	63 00                	arpl   %ax,(%eax)
    1882:	01 c5                	add    %eax,%ebp
    1884:	1f                   	pop    %ds
    1885:	03 00                	add    (%eax),%eax
    1887:	00 03                	add    %al,(%ebx)
    1889:	91                   	xchg   %eax,%ecx
    188a:	a0 7f 18 69 00       	mov    0x69187f,%al
    188f:	01 c6                	add    %eax,%esi
    1891:	42                   	inc    %edx
    1892:	00 00                	add    %al,(%eax)
    1894:	00 aa 06 00 00 19    	add    %ch,0x19000006(%edx)
    189a:	63 32                	arpl   %si,(%edx)
    189c:	00 01                	add    %al,(%ecx)
    189e:	cf                   	iret   
    189f:	1f                   	pop    %ds
    18a0:	03 00                	add    (%eax),%eax
    18a2:	00 02                	add    %al,(%edx)
    18a4:	91                   	xchg   %eax,%ecx
    18a5:	40                   	inc    %eax
    18a6:	18 6a 00             	sbb    %ch,0x0(%edx)
    18a9:	01 d1                	add    %edx,%ecx
    18ab:	42                   	inc    %edx
    18ac:	00 00                	add    %al,(%eax)
    18ae:	00 0a                	add    %cl,(%edx)
    18b0:	07                   	pop    %es
    18b1:	00 00                	add    %al,(%eax)
    18b3:	07                   	pop    %es
    18b4:	99                   	cltd   
    18b5:	0f 10 00             	movups (%eax),%xmm0
    18b8:	0e                   	push   %cs
    18b9:	01 00                	add    %eax,(%eax)
    18bb:	00 07                	add    %al,(%edi)
    18bd:	e0 0f                	loopne 18ce <multiboot_header-0xfe7b2>
    18bf:	10 00                	adc    %al,(%eax)
    18c1:	02 02                	add    (%edx),%al
    18c3:	00 00                	add    %al,(%eax)
    18c5:	00 1a                	add    %bl,(%edx)
    18c7:	74 00                	je     18c9 <multiboot_header-0xfe7b7>
    18c9:	00 00                	add    %al,(%eax)
    18cb:	2f                   	das    
    18cc:	03 00                	add    (%eax),%eax
    18ce:	00 1b                	add    %bl,(%ebx)
    18d0:	2f                   	das    
    18d1:	03 00                	add    (%eax),%eax
    18d3:	00 1f                	add    %bl,(%edi)
    18d5:	00 03                	add    %al,(%ebx)
    18d7:	04 07                	add    $0x7,%al
    18d9:	f5                   	cmc    
    18da:	02 00                	add    (%eax),%al
    18dc:	00 1c 34             	add    %bl,(%esp,%esi,1)
    18df:	06                   	push   %es
    18e0:	00 00                	add    %al,(%eax)
    18e2:	01 08                	add    %ecx,(%eax)
    18e4:	b7 01                	mov    $0x1,%bh
    18e6:	00 00                	add    %al,(%eax)
    18e8:	05 03 5c 18 10       	add    $0x10185c03,%eax
    18ed:	00 1c fc             	add    %bl,(%esp,%edi,8)
    18f0:	05 00 00 01 0a       	add    $0xa010000,%eax
    18f5:	62 00                	bound  %eax,(%eax)
    18f7:	00 00                	add    %al,(%eax)
    18f9:	05 03 e5 1a 11       	add    $0x111ae503,%eax
    18fe:	00 1c 53             	add    %bl,(%ebx,%edx,2)
    1901:	06                   	push   %es
    1902:	00 00                	add    %al,(%eax)
    1904:	01 0b                	add    %ecx,(%ebx)
    1906:	62 00                	bound  %eax,(%eax)
    1908:	00 00                	add    %al,(%eax)
    190a:	05 03 e4 1a 11       	add    $0x111ae403,%eax
    190f:	00 1d b5 02 00 00    	add    %bl,0x2b5
    1915:	b5 02                	mov    $0x2,%ch
    1917:	00 00                	add    %al,(%eax)
    1919:	03 06                	add    (%esi),%eax
    191b:	00 b0 00 00 00 04    	add    %dh,0x4000000(%eax)
    1921:	00 fd                	add    %bh,%ch
    1923:	0a 00                	or     (%eax),%al
    1925:	00 04 01             	add    %al,(%ecx,%eax,1)
    1928:	1c 01                	sbb    $0x1,%al
    192a:	00 00                	add    %al,(%eax)
    192c:	0c 84                	or     $0x84,%al
    192e:	06                   	push   %es
    192f:	00 00                	add    %al,(%eax)
    1931:	8d 06                	lea    (%esi),%eax
    1933:	00 00                	add    %al,(%eax)
    1935:	eb 0f                	jmp    1946 <multiboot_header-0xfe73a>
    1937:	10 00                	adc    %al,(%eax)
    1939:	18 00                	sbb    %al,(%eax)
    193b:	00 00                	add    %al,(%eax)
    193d:	49                   	dec    %ecx
    193e:	07                   	pop    %es
    193f:	00 00                	add    %al,(%eax)
    1941:	02 04 05 69 6e 74 00 	add    0x746e69(,%eax,1),%al
    1948:	03 32                	add    (%edx),%esi
    194a:	02 00                	add    (%eax),%al
    194c:	00 02                	add    %al,(%edx)
    194e:	d8 37                	fdivs  (%edi)
    1950:	00 00                	add    %al,(%eax)
    1952:	00 04 04             	add    %al,(%esp,%eax,1)
    1955:	07                   	pop    %es
    1956:	0f 01 00             	sgdtl  (%eax)
    1959:	00 04 04             	add    %al,(%esp,%eax,1)
    195c:	05 cf 01 00 00       	add    $0x1cf,%eax
    1961:	05 55 04 00 00       	add    $0x455,%eax
    1966:	01 03                	add    %eax,(%ebx)
    1968:	a4                   	movsb  %ds:(%esi),%es:(%edi)
    1969:	00 00                	add    %al,(%eax)
    196b:	00 eb                	add    %ch,%bl
    196d:	0f 10 00             	movups (%eax),%xmm0
    1970:	18 00                	sbb    %al,(%eax)
    1972:	00 00                	add    %al,(%eax)
    1974:	01 9c a4 00 00 00 06 	add    %ebx,0x6000000(%esp,%eiz,4)
    197b:	73 00                	jae    197d <multiboot_header-0xfe703>
    197d:	01 03                	add    %eax,(%ebx)
    197f:	a4                   	movsb  %ds:(%esi),%es:(%edi)
    1980:	00 00                	add    %al,(%eax)
    1982:	00 29                	add    %ch,(%ecx)
    1984:	07                   	pop    %es
    1985:	00 00                	add    %al,(%eax)
    1987:	07                   	pop    %es
    1988:	63 00                	arpl   %ax,(%eax)
    198a:	01 03                	add    %eax,(%ebx)
    198c:	25 00 00 00 02       	and    $0x2000000,%eax
    1991:	91                   	xchg   %eax,%ecx
    1992:	04 07                	add    $0x7,%al
    1994:	6e                   	outsb  %ds:(%esi),(%dx)
    1995:	00 01                	add    %al,(%ecx)
    1997:	03 2c 00             	add    (%eax,%eax,1),%ebp
    199a:	00 00                	add    %al,(%eax)
    199c:	02 91 08 08 70 00    	add    0x700808(%ecx),%dl
    19a2:	01 05 a6 00 00 00    	add    %eax,0xa6
    19a8:	48                   	dec    %eax
    19a9:	07                   	pop    %es
    19aa:	00 00                	add    %al,(%eax)
    19ac:	09 30                	or     %esi,(%eax)
    19ae:	00 00                	add    %al,(%eax)
    19b0:	00 08                	add    %cl,(%eax)
    19b2:	69 00 01 07 2c 00    	imul   $0x2c0701,(%eax),%eax
    19b8:	00 00                	add    %al,(%eax)
    19ba:	67 07                	addr16 pop %es
    19bc:	00 00                	add    %al,(%eax)
    19be:	00 00                	add    %al,(%eax)
    19c0:	0a 04 0b             	or     (%ebx,%ecx,1),%al
    19c3:	04 ac                	add    $0xac,%al
    19c5:	00 00                	add    %al,(%eax)
    19c7:	00 04 01             	add    %al,(%ecx,%eax,1)
    19ca:	06                   	push   %es
    19cb:	ed                   	in     (%dx),%eax
    19cc:	00 00                	add    %al,(%eax)
	...

Disassembly of section .debug_abbrev:

00000000 <.debug_abbrev>:
   0:	01 11                	add    %edx,(%ecx)
   2:	01 25 0e 13 0b 03    	add    %esp,0x30b130e
   8:	08 1b                	or     %bl,(%ebx)
   a:	0e                   	push   %cs
   b:	11 01                	adc    %eax,(%ecx)
   d:	12 06                	adc    (%esi),%al
   f:	10 17                	adc    %dl,(%edi)
  11:	00 00                	add    %al,(%eax)
  13:	02 24 00             	add    (%eax,%eax,1),%ah
  16:	0b 0b                	or     (%ebx),%ecx
  18:	3e 0b 03             	or     %ds:(%ebx),%eax
  1b:	08 00                	or     %al,(%eax)
  1d:	00 03                	add    %al,(%ebx)
  1f:	24 00                	and    $0x0,%al
  21:	0b 0b                	or     (%ebx),%ecx
  23:	3e 0b 03             	or     %ds:(%ebx),%eax
  26:	0e                   	push   %cs
  27:	00 00                	add    %al,(%eax)
  29:	04 13                	add    $0x13,%al
  2b:	01 0b                	add    %ecx,(%ebx)
  2d:	0b 3a                	or     (%edx),%edi
  2f:	0b 3b                	or     (%ebx),%edi
  31:	0b 01                	or     (%ecx),%eax
  33:	13 00                	adc    (%eax),%eax
  35:	00 05 0d 00 03 0e    	add    %al,0xe03000d
  3b:	3a 0b                	cmp    (%ebx),%cl
  3d:	3b 0b                	cmp    (%ebx),%ecx
  3f:	49                   	dec    %ecx
  40:	13 38                	adc    (%eax),%edi
  42:	0b 00                	or     (%eax),%eax
  44:	00 06                	add    %al,(%esi)
  46:	16                   	push   %ss
  47:	00 03                	add    %al,(%ebx)
  49:	0e                   	push   %cs
  4a:	3a 0b                	cmp    (%ebx),%cl
  4c:	3b 0b                	cmp    (%ebx),%ecx
  4e:	49                   	dec    %ecx
  4f:	13 00                	adc    (%eax),%eax
  51:	00 07                	add    %al,(%edi)
  53:	0d 00 03 08 3a       	or     $0x3a080300,%eax
  58:	0b 3b                	or     (%ebx),%edi
  5a:	0b 49 13             	or     0x13(%ecx),%ecx
  5d:	38 0b                	cmp    %cl,(%ebx)
  5f:	00 00                	add    %al,(%eax)
  61:	08 17                	or     %dl,(%edi)
  63:	01 0b                	add    %ecx,(%ebx)
  65:	0b 3a                	or     (%edx),%edi
  67:	0b 3b                	or     (%ebx),%edi
  69:	0b 01                	or     (%ecx),%eax
  6b:	13 00                	adc    (%eax),%eax
  6d:	00 09                	add    %cl,(%ecx)
  6f:	0d 00 03 0e 3a       	or     $0x3a0e0300,%eax
  74:	0b 3b                	or     (%ebx),%edi
  76:	0b 49 13             	or     0x13(%ecx),%ecx
  79:	00 00                	add    %al,(%eax)
  7b:	0a 2e                	or     (%esi),%ch
  7d:	01 3f                	add    %edi,(%edi)
  7f:	19 03                	sbb    %eax,(%ebx)
  81:	0e                   	push   %cs
  82:	3a 0b                	cmp    (%ebx),%cl
  84:	3b 0b                	cmp    (%ebx),%ecx
  86:	27                   	daa    
  87:	19 87 01 19 11 01    	sbb    %eax,0x1111901(%edi)
  8d:	12 06                	adc    (%esi),%al
  8f:	40                   	inc    %eax
  90:	18 97 42 19 01 13    	sbb    %dl,0x13011942(%edi)
  96:	00 00                	add    %al,(%eax)
  98:	0b 05 00 03 0e 3a    	or     0x3a0e0300,%eax
  9e:	0b 3b                	or     (%ebx),%edi
  a0:	0b 49 13             	or     0x13(%ecx),%ecx
  a3:	02 18                	add    (%eax),%bl
  a5:	00 00                	add    %al,(%eax)
  a7:	0c 89                	or     $0x89,%al
  a9:	82                   	(bad)  
  aa:	01 00                	add    %eax,(%eax)
  ac:	11 01                	adc    %eax,(%ecx)
  ae:	31 13                	xor    %edx,(%ebx)
  b0:	00 00                	add    %al,(%eax)
  b2:	0d 0f 00 0b 0b       	or     $0xb0b000f,%eax
  b7:	49                   	dec    %ecx
  b8:	13 00                	adc    (%eax),%eax
  ba:	00 0e                	add    %cl,(%esi)
  bc:	2e 00 3f             	add    %bh,%cs:(%edi)
  bf:	19 3c 19             	sbb    %edi,(%ecx,%ebx,1)
  c2:	6e                   	outsb  %ds:(%esi),(%dx)
  c3:	0e                   	push   %cs
  c4:	03 0e                	add    (%esi),%ecx
  c6:	3a 0b                	cmp    (%ebx),%cl
  c8:	3b 0b                	cmp    (%ebx),%ecx
  ca:	00 00                	add    %al,(%eax)
  cc:	00 01                	add    %al,(%ecx)
  ce:	11 01                	adc    %eax,(%ecx)
  d0:	25 0e 13 0b 03       	and    $0x30b130e,%eax
  d5:	0e                   	push   %cs
  d6:	1b 0e                	sbb    (%esi),%ecx
  d8:	11 01                	adc    %eax,(%ecx)
  da:	12 06                	adc    (%esi),%al
  dc:	10 17                	adc    %dl,(%edi)
  de:	00 00                	add    %al,(%eax)
  e0:	02 24 00             	add    (%eax,%eax,1),%ah
  e3:	0b 0b                	or     (%ebx),%ecx
  e5:	3e 0b 03             	or     %ds:(%ebx),%eax
  e8:	08 00                	or     %al,(%eax)
  ea:	00 03                	add    %al,(%ebx)
  ec:	16                   	push   %ss
  ed:	00 03                	add    %al,(%ebx)
  ef:	0e                   	push   %cs
  f0:	3a 0b                	cmp    (%ebx),%cl
  f2:	3b 0b                	cmp    (%ebx),%ecx
  f4:	49                   	dec    %ecx
  f5:	13 00                	adc    (%eax),%eax
  f7:	00 04 24             	add    %al,(%esp)
  fa:	00 0b                	add    %cl,(%ebx)
  fc:	0b 3e                	or     (%esi),%edi
  fe:	0b 03                	or     (%ebx),%eax
 100:	0e                   	push   %cs
 101:	00 00                	add    %al,(%eax)
 103:	05 2e 01 3f 19       	add    $0x193f012e,%eax
 108:	03 0e                	add    (%esi),%ecx
 10a:	3a 0b                	cmp    (%ebx),%cl
 10c:	3b 0b                	cmp    (%ebx),%ecx
 10e:	27                   	daa    
 10f:	19 11                	sbb    %edx,(%ecx)
 111:	01 12                	add    %edx,(%edx)
 113:	06                   	push   %es
 114:	40                   	inc    %eax
 115:	18 97 42 19 01 13    	sbb    %dl,0x13011942(%edi)
 11b:	00 00                	add    %al,(%eax)
 11d:	06                   	push   %es
 11e:	05 00 03 0e 3a       	add    $0x3a0e0300,%eax
 123:	0b 3b                	or     (%ebx),%edi
 125:	0b 49 13             	or     0x13(%ecx),%ecx
 128:	02 18                	add    (%eax),%bl
 12a:	00 00                	add    %al,(%eax)
 12c:	07                   	pop    %es
 12d:	0b 01                	or     (%ecx),%eax
 12f:	55                   	push   %ebp
 130:	17                   	pop    %ss
 131:	01 13                	add    %edx,(%ebx)
 133:	00 00                	add    %al,(%eax)
 135:	08 34 00             	or     %dh,(%eax,%eax,1)
 138:	03 08                	add    (%eax),%ecx
 13a:	3a 0b                	cmp    (%ebx),%cl
 13c:	3b 0b                	cmp    (%ebx),%ecx
 13e:	49                   	dec    %ecx
 13f:	13 02                	adc    (%edx),%eax
 141:	17                   	pop    %ss
 142:	00 00                	add    %al,(%eax)
 144:	09 89 82 01 00 11    	or     %ecx,0x11000182(%ecx)
 14a:	01 31                	add    %esi,(%ecx)
 14c:	13 00                	adc    (%eax),%eax
 14e:	00 0a                	add    %cl,(%edx)
 150:	0f 00 0b             	str    (%ebx)
 153:	0b 49 13             	or     0x13(%ecx),%ecx
 156:	00 00                	add    %al,(%eax)
 158:	0b 2e                	or     (%esi),%ebp
 15a:	01 03                	add    %eax,(%ebx)
 15c:	0e                   	push   %cs
 15d:	3a 0b                	cmp    (%ebx),%cl
 15f:	3b 0b                	cmp    (%ebx),%ecx
 161:	27                   	daa    
 162:	19 11                	sbb    %edx,(%ecx)
 164:	01 12                	add    %edx,(%edx)
 166:	06                   	push   %es
 167:	40                   	inc    %eax
 168:	18 97 42 19 01 13    	sbb    %dl,0x13011942(%edi)
 16e:	00 00                	add    %al,(%eax)
 170:	0c 05                	or     $0x5,%al
 172:	00 03                	add    %al,(%ebx)
 174:	0e                   	push   %cs
 175:	3a 0b                	cmp    (%ebx),%cl
 177:	3b 0b                	cmp    (%ebx),%ecx
 179:	49                   	dec    %ecx
 17a:	13 02                	adc    (%edx),%eax
 17c:	17                   	pop    %ss
 17d:	00 00                	add    %al,(%eax)
 17f:	0d 2e 01 3f 19       	or     $0x193f012e,%eax
 184:	03 0e                	add    (%esi),%ecx
 186:	3a 0b                	cmp    (%ebx),%cl
 188:	3b 0b                	cmp    (%ebx),%ecx
 18a:	27                   	daa    
 18b:	19 49 13             	sbb    %ecx,0x13(%ecx)
 18e:	11 01                	adc    %eax,(%ecx)
 190:	12 06                	adc    (%esi),%al
 192:	40                   	inc    %eax
 193:	18 97 42 19 01 13    	sbb    %dl,0x13011942(%edi)
 199:	00 00                	add    %al,(%eax)
 19b:	0e                   	push   %cs
 19c:	34 00                	xor    $0x0,%al
 19e:	03 0e                	add    (%esi),%ecx
 1a0:	3a 0b                	cmp    (%ebx),%cl
 1a2:	3b 0b                	cmp    (%ebx),%ecx
 1a4:	49                   	dec    %ecx
 1a5:	13 02                	adc    (%edx),%eax
 1a7:	17                   	pop    %ss
 1a8:	00 00                	add    %al,(%eax)
 1aa:	0f 34                	sysenter 
 1ac:	00 03                	add    %al,(%ebx)
 1ae:	0e                   	push   %cs
 1af:	3a 0b                	cmp    (%ebx),%cl
 1b1:	3b 0b                	cmp    (%ebx),%ecx
 1b3:	49                   	dec    %ecx
 1b4:	13 02                	adc    (%edx),%eax
 1b6:	18 00                	sbb    %al,(%eax)
 1b8:	00 10                	add    %dl,(%eax)
 1ba:	0b 01                	or     (%ecx),%eax
 1bc:	11 01                	adc    %eax,(%ecx)
 1be:	12 06                	adc    (%esi),%al
 1c0:	01 13                	add    %edx,(%ebx)
 1c2:	00 00                	add    %al,(%eax)
 1c4:	11 89 82 01 01 11    	adc    %ecx,0x11010182(%ecx)
 1ca:	01 31                	add    %esi,(%ecx)
 1cc:	13 01                	adc    (%ecx),%eax
 1ce:	13 00                	adc    (%eax),%eax
 1d0:	00 12                	add    %dl,(%edx)
 1d2:	8a 82 01 00 02 18    	mov    0x18020001(%edx),%al
 1d8:	91                   	xchg   %eax,%ecx
 1d9:	42                   	inc    %edx
 1da:	18 00                	sbb    %al,(%eax)
 1dc:	00 13                	add    %dl,(%ebx)
 1de:	89 82 01 01 11 01    	mov    %eax,0x1110101(%edx)
 1e4:	95                   	xchg   %eax,%ebp
 1e5:	42                   	inc    %edx
 1e6:	19 31                	sbb    %esi,(%ecx)
 1e8:	13 00                	adc    (%eax),%eax
 1ea:	00 14 01             	add    %dl,(%ecx,%eax,1)
 1ed:	01 49 13             	add    %ecx,0x13(%ecx)
 1f0:	01 13                	add    %edx,(%ebx)
 1f2:	00 00                	add    %al,(%eax)
 1f4:	15 21 00 49 13       	adc    $0x13490021,%eax
 1f9:	2f                   	das    
 1fa:	05 00 00 16 21       	add    $0x21160000,%eax
 1ff:	00 49 13             	add    %cl,0x13(%ecx)
 202:	2f                   	das    
 203:	0b 00                	or     (%eax),%eax
 205:	00 17                	add    %dl,(%edi)
 207:	2e 00 3f             	add    %bh,%cs:(%edi)
 20a:	19 3c 19             	sbb    %edi,(%ecx,%ebx,1)
 20d:	6e                   	outsb  %ds:(%esi),(%dx)
 20e:	0e                   	push   %cs
 20f:	03 0e                	add    (%esi),%ecx
 211:	3a 0b                	cmp    (%ebx),%cl
 213:	3b 0b                	cmp    (%ebx),%ecx
 215:	00 00                	add    %al,(%eax)
 217:	18 2e                	sbb    %ch,(%esi)
 219:	00 3f                	add    %bh,(%edi)
 21b:	19 3c 19             	sbb    %edi,(%ecx,%ebx,1)
 21e:	6e                   	outsb  %ds:(%esi),(%dx)
 21f:	08 03                	or     %al,(%ebx)
 221:	08 3a                	or     %bh,(%edx)
 223:	0b 3b                	or     (%ebx),%edi
 225:	0b 00                	or     (%eax),%eax
 227:	00 00                	add    %al,(%eax)
 229:	01 11                	add    %edx,(%ecx)
 22b:	01 25 0e 13 0b 03    	add    %esp,0x30b130e
 231:	0e                   	push   %cs
 232:	1b 0e                	sbb    (%esi),%ecx
 234:	11 01                	adc    %eax,(%ecx)
 236:	12 06                	adc    (%esi),%al
 238:	10 17                	adc    %dl,(%edi)
 23a:	00 00                	add    %al,(%eax)
 23c:	02 24 00             	add    (%eax,%eax,1),%ah
 23f:	0b 0b                	or     (%ebx),%ecx
 241:	3e 0b 03             	or     %ds:(%ebx),%eax
 244:	08 00                	or     %al,(%eax)
 246:	00 03                	add    %al,(%ebx)
 248:	24 00                	and    $0x0,%al
 24a:	0b 0b                	or     (%ebx),%ecx
 24c:	3e 0b 03             	or     %ds:(%ebx),%eax
 24f:	0e                   	push   %cs
 250:	00 00                	add    %al,(%eax)
 252:	04 16                	add    $0x16,%al
 254:	00 03                	add    %al,(%ebx)
 256:	08 3a                	or     %bh,(%edx)
 258:	0b 3b                	or     (%ebx),%edi
 25a:	0b 49 13             	or     0x13(%ecx),%ecx
 25d:	00 00                	add    %al,(%eax)
 25f:	05 13 01 03 0e       	add    $0xe030113,%eax
 264:	0b 0b                	or     (%ebx),%ecx
 266:	3a 0b                	cmp    (%ebx),%cl
 268:	3b 0b                	cmp    (%ebx),%ecx
 26a:	01 13                	add    %edx,(%ebx)
 26c:	00 00                	add    %al,(%eax)
 26e:	06                   	push   %es
 26f:	0d 00 03 0e 3a       	or     $0x3a0e0300,%eax
 274:	0b 3b                	or     (%ebx),%edi
 276:	0b 49 13             	or     0x13(%ecx),%ecx
 279:	38 0b                	cmp    %cl,(%ebx)
 27b:	00 00                	add    %al,(%eax)
 27d:	07                   	pop    %es
 27e:	16                   	push   %ss
 27f:	00 03                	add    %al,(%ebx)
 281:	0e                   	push   %cs
 282:	3a 0b                	cmp    (%ebx),%cl
 284:	3b 0b                	cmp    (%ebx),%ecx
 286:	49                   	dec    %ecx
 287:	13 00                	adc    (%eax),%eax
 289:	00 08                	add    %cl,(%eax)
 28b:	2e 01 03             	add    %eax,%cs:(%ebx)
 28e:	0e                   	push   %cs
 28f:	3a 0b                	cmp    (%ebx),%cl
 291:	3b 0b                	cmp    (%ebx),%ecx
 293:	27                   	daa    
 294:	19 20                	sbb    %esp,(%eax)
 296:	0b 01                	or     (%ecx),%eax
 298:	13 00                	adc    (%eax),%eax
 29a:	00 09                	add    %cl,(%ecx)
 29c:	05 00 03 08 3a       	add    $0x3a080300,%eax
 2a1:	0b 3b                	or     (%ebx),%edi
 2a3:	0b 49 13             	or     0x13(%ecx),%ecx
 2a6:	00 00                	add    %al,(%eax)
 2a8:	0a 05 00 03 0e 3a    	or     0x3a0e0300,%al
 2ae:	0b 3b                	or     (%ebx),%edi
 2b0:	0b 49 13             	or     0x13(%ecx),%ecx
 2b3:	00 00                	add    %al,(%eax)
 2b5:	0b 2e                	or     (%esi),%ebp
 2b7:	01 3f                	add    %edi,(%edi)
 2b9:	19 03                	sbb    %eax,(%ebx)
 2bb:	0e                   	push   %cs
 2bc:	3a 0b                	cmp    (%ebx),%cl
 2be:	3b 0b                	cmp    (%ebx),%ecx
 2c0:	11 01                	adc    %eax,(%ecx)
 2c2:	12 06                	adc    (%esi),%al
 2c4:	40                   	inc    %eax
 2c5:	18 97 42 19 01 13    	sbb    %dl,0x13011942(%edi)
 2cb:	00 00                	add    %al,(%eax)
 2cd:	0c 1d                	or     $0x1d,%al
 2cf:	01 31                	add    %esi,(%ecx)
 2d1:	13 52 01             	adc    0x1(%edx),%edx
 2d4:	55                   	push   %ebp
 2d5:	17                   	pop    %ss
 2d6:	58                   	pop    %eax
 2d7:	0b 59 0b             	or     0xb(%ecx),%ebx
 2da:	01 13                	add    %edx,(%ebx)
 2dc:	00 00                	add    %al,(%eax)
 2de:	0d 05 00 31 13       	or     $0x13310005,%eax
 2e3:	02 17                	add    (%edi),%dl
 2e5:	00 00                	add    %al,(%eax)
 2e7:	0e                   	push   %cs
 2e8:	1d 01 31 13 11       	sbb    $0x11133101,%eax
 2ed:	01 12                	add    %edx,(%edx)
 2ef:	06                   	push   %es
 2f0:	58                   	pop    %eax
 2f1:	0b 59 0b             	or     0xb(%ecx),%ebx
 2f4:	01 13                	add    %edx,(%ebx)
 2f6:	00 00                	add    %al,(%eax)
 2f8:	0f 1d 01             	nopl   (%ecx)
 2fb:	31 13                	xor    %edx,(%ebx)
 2fd:	11 01                	adc    %eax,(%ecx)
 2ff:	12 06                	adc    (%esi),%al
 301:	58                   	pop    %eax
 302:	0b 59 0b             	or     0xb(%ecx),%ebx
 305:	00 00                	add    %al,(%eax)
 307:	10 01                	adc    %al,(%ecx)
 309:	01 49 13             	add    %ecx,0x13(%ecx)
 30c:	01 13                	add    %edx,(%ebx)
 30e:	00 00                	add    %al,(%eax)
 310:	11 21                	adc    %esp,(%ecx)
 312:	00 49 13             	add    %cl,0x13(%ecx)
 315:	2f                   	das    
 316:	0b 00                	or     (%eax),%eax
 318:	00 12                	add    %dl,(%edx)
 31a:	34 00                	xor    $0x0,%al
 31c:	03 0e                	add    (%esi),%ecx
 31e:	3a 0b                	cmp    (%ebx),%cl
 320:	3b 0b                	cmp    (%ebx),%ecx
 322:	49                   	dec    %ecx
 323:	13 3f                	adc    (%edi),%edi
 325:	19 02                	sbb    %eax,(%edx)
 327:	18 00                	sbb    %al,(%eax)
 329:	00 00                	add    %al,(%eax)
 32b:	01 11                	add    %edx,(%ecx)
 32d:	01 25 0e 13 0b 03    	add    %esp,0x30b130e
 333:	0e                   	push   %cs
 334:	1b 0e                	sbb    (%esi),%ecx
 336:	11 01                	adc    %eax,(%ecx)
 338:	12 06                	adc    (%esi),%al
 33a:	10 17                	adc    %dl,(%edi)
 33c:	00 00                	add    %al,(%eax)
 33e:	02 24 00             	add    (%eax,%eax,1),%ah
 341:	0b 0b                	or     (%ebx),%ecx
 343:	3e 0b 03             	or     %ds:(%ebx),%eax
 346:	08 00                	or     %al,(%eax)
 348:	00 03                	add    %al,(%ebx)
 34a:	16                   	push   %ss
 34b:	00 03                	add    %al,(%ebx)
 34d:	0e                   	push   %cs
 34e:	3a 0b                	cmp    (%ebx),%cl
 350:	3b 0b                	cmp    (%ebx),%ecx
 352:	49                   	dec    %ecx
 353:	13 00                	adc    (%eax),%eax
 355:	00 04 24             	add    %al,(%esp)
 358:	00 0b                	add    %cl,(%ebx)
 35a:	0b 3e                	or     (%esi),%edi
 35c:	0b 03                	or     (%ebx),%eax
 35e:	0e                   	push   %cs
 35f:	00 00                	add    %al,(%eax)
 361:	05 2e 01 3f 19       	add    $0x193f012e,%eax
 366:	03 0e                	add    (%esi),%ecx
 368:	3a 0b                	cmp    (%ebx),%cl
 36a:	3b 0b                	cmp    (%ebx),%ecx
 36c:	11 01                	adc    %eax,(%ecx)
 36e:	12 06                	adc    (%esi),%al
 370:	40                   	inc    %eax
 371:	18 97 42 19 01 13    	sbb    %dl,0x13011942(%edi)
 377:	00 00                	add    %al,(%eax)
 379:	06                   	push   %es
 37a:	34 00                	xor    $0x0,%al
 37c:	03 08                	add    (%eax),%ecx
 37e:	3a 0b                	cmp    (%ebx),%cl
 380:	3b 0b                	cmp    (%ebx),%ecx
 382:	49                   	dec    %ecx
 383:	13 02                	adc    (%edx),%eax
 385:	17                   	pop    %ss
 386:	00 00                	add    %al,(%eax)
 388:	07                   	pop    %es
 389:	89 82 01 00 11 01    	mov    %eax,0x1110001(%edx)
 38f:	31 13                	xor    %edx,(%ebx)
 391:	00 00                	add    %al,(%eax)
 393:	08 2e                	or     %ch,(%esi)
 395:	01 3f                	add    %edi,(%edi)
 397:	19 03                	sbb    %eax,(%ebx)
 399:	0e                   	push   %cs
 39a:	3a 0b                	cmp    (%ebx),%cl
 39c:	3b 0b                	cmp    (%ebx),%ecx
 39e:	27                   	daa    
 39f:	19 49 13             	sbb    %ecx,0x13(%ecx)
 3a2:	11 01                	adc    %eax,(%ecx)
 3a4:	12 06                	adc    (%esi),%al
 3a6:	40                   	inc    %eax
 3a7:	18 97 42 19 01 13    	sbb    %dl,0x13011942(%edi)
 3ad:	00 00                	add    %al,(%eax)
 3af:	09 05 00 03 08 3a    	or     %eax,0x3a080300
 3b5:	0b 3b                	or     (%ebx),%edi
 3b7:	0b 49 13             	or     0x13(%ecx),%ecx
 3ba:	02 18                	add    (%eax),%bl
 3bc:	00 00                	add    %al,(%eax)
 3be:	0a 05 00 03 0e 3a    	or     0x3a0e0300,%al
 3c4:	0b 3b                	or     (%ebx),%edi
 3c6:	0b 49 13             	or     0x13(%ecx),%ecx
 3c9:	02 18                	add    (%eax),%bl
 3cb:	00 00                	add    %al,(%eax)
 3cd:	0b 0b                	or     (%ebx),%ecx
 3cf:	01 11                	add    %edx,(%ecx)
 3d1:	01 12                	add    %edx,(%edx)
 3d3:	06                   	push   %es
 3d4:	00 00                	add    %al,(%eax)
 3d6:	0c 0f                	or     $0xf,%al
 3d8:	00 0b                	add    %cl,(%ebx)
 3da:	0b 49 13             	or     0x13(%ecx),%ecx
 3dd:	00 00                	add    %al,(%eax)
 3df:	0d 26 00 49 13       	or     $0x13490026,%eax
 3e4:	00 00                	add    %al,(%eax)
 3e6:	0e                   	push   %cs
 3e7:	2e 00 3f             	add    %bh,%cs:(%edi)
 3ea:	19 3c 19             	sbb    %edi,(%ecx,%ebx,1)
 3ed:	6e                   	outsb  %ds:(%esi),(%dx)
 3ee:	08 03                	or     %al,(%ebx)
 3f0:	08 3a                	or     %bh,(%edx)
 3f2:	0b 3b                	or     (%ebx),%edi
 3f4:	0b 00                	or     (%eax),%eax
 3f6:	00 0f                	add    %cl,(%edi)
 3f8:	2e 00 3f             	add    %bh,%cs:(%edi)
 3fb:	19 3c 19             	sbb    %edi,(%ecx,%ebx,1)
 3fe:	6e                   	outsb  %ds:(%esi),(%dx)
 3ff:	0e                   	push   %cs
 400:	03 0e                	add    (%esi),%ecx
 402:	3a 0b                	cmp    (%ebx),%cl
 404:	3b 0b                	cmp    (%ebx),%ecx
 406:	00 00                	add    %al,(%eax)
 408:	00 01                	add    %al,(%ecx)
 40a:	11 01                	adc    %eax,(%ecx)
 40c:	25 0e 13 0b 03       	and    $0x30b130e,%eax
 411:	0e                   	push   %cs
 412:	1b 0e                	sbb    (%esi),%ecx
 414:	11 01                	adc    %eax,(%ecx)
 416:	12 06                	adc    (%esi),%al
 418:	10 17                	adc    %dl,(%edi)
 41a:	00 00                	add    %al,(%eax)
 41c:	02 24 00             	add    (%eax,%eax,1),%ah
 41f:	0b 0b                	or     (%ebx),%ecx
 421:	3e 0b 03             	or     %ds:(%ebx),%eax
 424:	08 00                	or     %al,(%eax)
 426:	00 03                	add    %al,(%ebx)
 428:	24 00                	and    $0x0,%al
 42a:	0b 0b                	or     (%ebx),%ecx
 42c:	3e 0b 03             	or     %ds:(%ebx),%eax
 42f:	0e                   	push   %cs
 430:	00 00                	add    %al,(%eax)
 432:	04 16                	add    $0x16,%al
 434:	00 03                	add    %al,(%ebx)
 436:	08 3a                	or     %bh,(%edx)
 438:	0b 3b                	or     (%ebx),%edi
 43a:	0b 49 13             	or     0x13(%ecx),%ecx
 43d:	00 00                	add    %al,(%eax)
 43f:	05 13 01 03 0e       	add    $0xe030113,%eax
 444:	0b 0b                	or     (%ebx),%ecx
 446:	3a 0b                	cmp    (%ebx),%cl
 448:	3b 0b                	cmp    (%ebx),%ecx
 44a:	01 13                	add    %edx,(%ebx)
 44c:	00 00                	add    %al,(%eax)
 44e:	06                   	push   %es
 44f:	0d 00 03 0e 3a       	or     $0x3a0e0300,%eax
 454:	0b 3b                	or     (%ebx),%edi
 456:	0b 49 13             	or     0x13(%ecx),%ecx
 459:	38 0b                	cmp    %cl,(%ebx)
 45b:	00 00                	add    %al,(%eax)
 45d:	07                   	pop    %es
 45e:	0d 00 03 08 3a       	or     $0x3a080300,%eax
 463:	0b 3b                	or     (%ebx),%edi
 465:	0b 49 13             	or     0x13(%ecx),%ecx
 468:	38 0b                	cmp    %cl,(%ebx)
 46a:	00 00                	add    %al,(%eax)
 46c:	08 16                	or     %dl,(%esi)
 46e:	00 03                	add    %al,(%ebx)
 470:	0e                   	push   %cs
 471:	3a 0b                	cmp    (%ebx),%cl
 473:	3b 0b                	cmp    (%ebx),%ecx
 475:	49                   	dec    %ecx
 476:	13 00                	adc    (%eax),%eax
 478:	00 09                	add    %cl,(%ecx)
 47a:	2e 01 3f             	add    %edi,%cs:(%edi)
 47d:	19 03                	sbb    %eax,(%ebx)
 47f:	0e                   	push   %cs
 480:	3a 0b                	cmp    (%ebx),%cl
 482:	3b 0b                	cmp    (%ebx),%ecx
 484:	27                   	daa    
 485:	19 11                	sbb    %edx,(%ecx)
 487:	01 12                	add    %edx,(%edx)
 489:	06                   	push   %es
 48a:	40                   	inc    %eax
 48b:	18 97 42 19 01 13    	sbb    %dl,0x13011942(%edi)
 491:	00 00                	add    %al,(%eax)
 493:	0a 05 00 03 08 3a    	or     0x3a080300,%al
 499:	0b 3b                	or     (%ebx),%edi
 49b:	0b 49 13             	or     0x13(%ecx),%ecx
 49e:	02 18                	add    (%eax),%bl
 4a0:	00 00                	add    %al,(%eax)
 4a2:	0b 05 00 03 0e 3a    	or     0x3a0e0300,%eax
 4a8:	0b 3b                	or     (%ebx),%edi
 4aa:	0b 49 13             	or     0x13(%ecx),%ecx
 4ad:	02 18                	add    (%eax),%bl
 4af:	00 00                	add    %al,(%eax)
 4b1:	0c 2e                	or     $0x2e,%al
 4b3:	01 3f                	add    %edi,(%edi)
 4b5:	19 03                	sbb    %eax,(%ebx)
 4b7:	0e                   	push   %cs
 4b8:	3a 0b                	cmp    (%ebx),%cl
 4ba:	3b 0b                	cmp    (%ebx),%ecx
 4bc:	11 01                	adc    %eax,(%ecx)
 4be:	12 06                	adc    (%esi),%al
 4c0:	40                   	inc    %eax
 4c1:	18 97 42 19 01 13    	sbb    %dl,0x13011942(%edi)
 4c7:	00 00                	add    %al,(%eax)
 4c9:	0d 89 82 01 00       	or     $0x18289,%eax
 4ce:	11 01                	adc    %eax,(%ecx)
 4d0:	31 13                	xor    %edx,(%ebx)
 4d2:	00 00                	add    %al,(%eax)
 4d4:	0e                   	push   %cs
 4d5:	89 82 01 00 11 01    	mov    %eax,0x1110001(%edx)
 4db:	95                   	xchg   %eax,%ebp
 4dc:	42                   	inc    %edx
 4dd:	19 31                	sbb    %esi,(%ecx)
 4df:	13 00                	adc    (%eax),%eax
 4e1:	00 0f                	add    %cl,(%edi)
 4e3:	01 01                	add    %eax,(%ecx)
 4e5:	49                   	dec    %ecx
 4e6:	13 01                	adc    (%ecx),%eax
 4e8:	13 00                	adc    (%eax),%eax
 4ea:	00 10                	add    %dl,(%eax)
 4ec:	21 00                	and    %eax,(%eax)
 4ee:	49                   	dec    %ecx
 4ef:	13 2f                	adc    (%edi),%ebp
 4f1:	0b 00                	or     (%eax),%eax
 4f3:	00 11                	add    %dl,(%ecx)
 4f5:	34 00                	xor    $0x0,%al
 4f7:	03 0e                	add    (%esi),%ecx
 4f9:	3a 0b                	cmp    (%ebx),%cl
 4fb:	3b 0b                	cmp    (%ebx),%ecx
 4fd:	49                   	dec    %ecx
 4fe:	13 3f                	adc    (%edi),%edi
 500:	19 02                	sbb    %eax,(%edx)
 502:	18 00                	sbb    %al,(%eax)
 504:	00 12                	add    %dl,(%edx)
 506:	2e 00 3f             	add    %bh,%cs:(%edi)
 509:	19 3c 19             	sbb    %edi,(%ecx,%ebx,1)
 50c:	6e                   	outsb  %ds:(%esi),(%dx)
 50d:	0e                   	push   %cs
 50e:	03 0e                	add    (%esi),%ecx
 510:	3a 0b                	cmp    (%ebx),%cl
 512:	3b 0b                	cmp    (%ebx),%ecx
 514:	00 00                	add    %al,(%eax)
 516:	00 01                	add    %al,(%ecx)
 518:	11 01                	adc    %eax,(%ecx)
 51a:	25 0e 13 0b 03       	and    $0x30b130e,%eax
 51f:	0e                   	push   %cs
 520:	1b 0e                	sbb    (%esi),%ecx
 522:	11 01                	adc    %eax,(%ecx)
 524:	12 06                	adc    (%esi),%al
 526:	10 17                	adc    %dl,(%edi)
 528:	00 00                	add    %al,(%eax)
 52a:	02 24 00             	add    (%eax,%eax,1),%ah
 52d:	0b 0b                	or     (%ebx),%ecx
 52f:	3e 0b 03             	or     %ds:(%ebx),%eax
 532:	08 00                	or     %al,(%eax)
 534:	00 03                	add    %al,(%ebx)
 536:	24 00                	and    $0x0,%al
 538:	0b 0b                	or     (%ebx),%ecx
 53a:	3e 0b 03             	or     %ds:(%ebx),%eax
 53d:	0e                   	push   %cs
 53e:	00 00                	add    %al,(%eax)
 540:	04 16                	add    $0x16,%al
 542:	00 03                	add    %al,(%ebx)
 544:	08 3a                	or     %bh,(%edx)
 546:	0b 3b                	or     (%ebx),%edi
 548:	0b 49 13             	or     0x13(%ecx),%ecx
 54b:	00 00                	add    %al,(%eax)
 54d:	05 13 01 03 0e       	add    $0xe030113,%eax
 552:	0b 0b                	or     (%ebx),%ecx
 554:	3a 0b                	cmp    (%ebx),%cl
 556:	3b 0b                	cmp    (%ebx),%ecx
 558:	01 13                	add    %edx,(%ebx)
 55a:	00 00                	add    %al,(%eax)
 55c:	06                   	push   %es
 55d:	0d 00 03 08 3a       	or     $0x3a080300,%eax
 562:	0b 3b                	or     (%ebx),%edi
 564:	0b 49 13             	or     0x13(%ecx),%ecx
 567:	38 0b                	cmp    %cl,(%ebx)
 569:	00 00                	add    %al,(%eax)
 56b:	07                   	pop    %es
 56c:	0d 00 03 0e 3a       	or     $0x3a0e0300,%eax
 571:	0b 3b                	or     (%ebx),%edi
 573:	0b 49 13             	or     0x13(%ecx),%ecx
 576:	38 0b                	cmp    %cl,(%ebx)
 578:	00 00                	add    %al,(%eax)
 57a:	08 16                	or     %dl,(%esi)
 57c:	00 03                	add    %al,(%ebx)
 57e:	0e                   	push   %cs
 57f:	3a 0b                	cmp    (%ebx),%cl
 581:	3b 0b                	cmp    (%ebx),%ecx
 583:	49                   	dec    %ecx
 584:	13 00                	adc    (%eax),%eax
 586:	00 09                	add    %cl,(%ecx)
 588:	2e 01 3f             	add    %edi,%cs:(%edi)
 58b:	19 03                	sbb    %eax,(%ebx)
 58d:	0e                   	push   %cs
 58e:	3a 0b                	cmp    (%ebx),%cl
 590:	3b 0b                	cmp    (%ebx),%ecx
 592:	27                   	daa    
 593:	19 11                	sbb    %edx,(%ecx)
 595:	01 12                	add    %edx,(%edx)
 597:	06                   	push   %es
 598:	40                   	inc    %eax
 599:	18 97 42 19 01 13    	sbb    %dl,0x13011942(%edi)
 59f:	00 00                	add    %al,(%eax)
 5a1:	0a 05 00 03 08 3a    	or     0x3a080300,%al
 5a7:	0b 3b                	or     (%ebx),%edi
 5a9:	0b 49 13             	or     0x13(%ecx),%ecx
 5ac:	02 18                	add    (%eax),%bl
 5ae:	00 00                	add    %al,(%eax)
 5b0:	0b 89 82 01 00 11    	or     0x11000182(%ecx),%ecx
 5b6:	01 31                	add    %esi,(%ecx)
 5b8:	13 00                	adc    (%eax),%eax
 5ba:	00 0c 89             	add    %cl,(%ecx,%ecx,4)
 5bd:	82                   	(bad)  
 5be:	01 00                	add    %eax,(%eax)
 5c0:	11 01                	adc    %eax,(%ecx)
 5c2:	95                   	xchg   %eax,%ebp
 5c3:	42                   	inc    %edx
 5c4:	19 31                	sbb    %esi,(%ecx)
 5c6:	13 00                	adc    (%eax),%eax
 5c8:	00 0d 0f 00 0b 0b    	add    %cl,0xb0b000f
 5ce:	49                   	dec    %ecx
 5cf:	13 00                	adc    (%eax),%eax
 5d1:	00 0e                	add    %cl,(%esi)
 5d3:	01 01                	add    %eax,(%ecx)
 5d5:	49                   	dec    %ecx
 5d6:	13 01                	adc    (%ecx),%eax
 5d8:	13 00                	adc    (%eax),%eax
 5da:	00 0f                	add    %cl,(%edi)
 5dc:	21 00                	and    %eax,(%eax)
 5de:	49                   	dec    %ecx
 5df:	13 2f                	adc    (%edi),%ebp
 5e1:	0b 00                	or     (%eax),%eax
 5e3:	00 10                	add    %dl,(%eax)
 5e5:	26 00 49 13          	add    %cl,%es:0x13(%ecx)
 5e9:	00 00                	add    %al,(%eax)
 5eb:	11 34 00             	adc    %esi,(%eax,%eax,1)
 5ee:	03 0e                	add    (%esi),%ecx
 5f0:	3a 0b                	cmp    (%ebx),%cl
 5f2:	3b 0b                	cmp    (%ebx),%ecx
 5f4:	49                   	dec    %ecx
 5f5:	13 3f                	adc    (%edi),%edi
 5f7:	19 02                	sbb    %eax,(%edx)
 5f9:	18 00                	sbb    %al,(%eax)
 5fb:	00 12                	add    %dl,(%edx)
 5fd:	2e 00 3f             	add    %bh,%cs:(%edi)
 600:	19 3c 19             	sbb    %edi,(%ecx,%ebx,1)
 603:	6e                   	outsb  %ds:(%esi),(%dx)
 604:	0e                   	push   %cs
 605:	03 0e                	add    (%esi),%ecx
 607:	3a 0b                	cmp    (%ebx),%cl
 609:	3b 0b                	cmp    (%ebx),%ecx
 60b:	00 00                	add    %al,(%eax)
 60d:	00 01                	add    %al,(%ecx)
 60f:	11 01                	adc    %eax,(%ecx)
 611:	25 0e 13 0b 03       	and    $0x30b130e,%eax
 616:	0e                   	push   %cs
 617:	1b 0e                	sbb    (%esi),%ecx
 619:	11 01                	adc    %eax,(%ecx)
 61b:	12 06                	adc    (%esi),%al
 61d:	10 17                	adc    %dl,(%edi)
 61f:	00 00                	add    %al,(%eax)
 621:	02 24 00             	add    (%eax,%eax,1),%ah
 624:	0b 0b                	or     (%ebx),%ecx
 626:	3e 0b 03             	or     %ds:(%ebx),%eax
 629:	08 00                	or     %al,(%eax)
 62b:	00 03                	add    %al,(%ebx)
 62d:	24 00                	and    $0x0,%al
 62f:	0b 0b                	or     (%ebx),%ecx
 631:	3e 0b 03             	or     %ds:(%ebx),%eax
 634:	0e                   	push   %cs
 635:	00 00                	add    %al,(%eax)
 637:	04 16                	add    $0x16,%al
 639:	00 03                	add    %al,(%ebx)
 63b:	08 3a                	or     %bh,(%edx)
 63d:	0b 3b                	or     (%ebx),%edi
 63f:	0b 49 13             	or     0x13(%ecx),%ecx
 642:	00 00                	add    %al,(%eax)
 644:	05 13 01 03 0e       	add    $0xe030113,%eax
 649:	0b 0b                	or     (%ebx),%ecx
 64b:	3a 0b                	cmp    (%ebx),%cl
 64d:	3b 0b                	cmp    (%ebx),%ecx
 64f:	01 13                	add    %edx,(%ebx)
 651:	00 00                	add    %al,(%eax)
 653:	06                   	push   %es
 654:	0d 00 03 08 3a       	or     $0x3a080300,%eax
 659:	0b 3b                	or     (%ebx),%edi
 65b:	0b 49 13             	or     0x13(%ecx),%ecx
 65e:	38 0b                	cmp    %cl,(%ebx)
 660:	00 00                	add    %al,(%eax)
 662:	07                   	pop    %es
 663:	0d 00 03 0e 3a       	or     $0x3a0e0300,%eax
 668:	0b 3b                	or     (%ebx),%edi
 66a:	0b 49 13             	or     0x13(%ecx),%ecx
 66d:	38 0b                	cmp    %cl,(%ebx)
 66f:	00 00                	add    %al,(%eax)
 671:	08 16                	or     %dl,(%esi)
 673:	00 03                	add    %al,(%ebx)
 675:	0e                   	push   %cs
 676:	3a 0b                	cmp    (%ebx),%cl
 678:	3b 0b                	cmp    (%ebx),%ecx
 67a:	49                   	dec    %ecx
 67b:	13 00                	adc    (%eax),%eax
 67d:	00 09                	add    %cl,(%ecx)
 67f:	2e 01 3f             	add    %edi,%cs:(%edi)
 682:	19 03                	sbb    %eax,(%ebx)
 684:	0e                   	push   %cs
 685:	3a 0b                	cmp    (%ebx),%cl
 687:	3b 0b                	cmp    (%ebx),%ecx
 689:	27                   	daa    
 68a:	19 11                	sbb    %edx,(%ecx)
 68c:	01 12                	add    %edx,(%edx)
 68e:	06                   	push   %es
 68f:	40                   	inc    %eax
 690:	18 97 42 19 01 13    	sbb    %dl,0x13011942(%edi)
 696:	00 00                	add    %al,(%eax)
 698:	0a 05 00 03 08 3a    	or     0x3a080300,%al
 69e:	0b 3b                	or     (%ebx),%edi
 6a0:	0b 49 13             	or     0x13(%ecx),%ecx
 6a3:	02 18                	add    (%eax),%bl
 6a5:	00 00                	add    %al,(%eax)
 6a7:	0b 05 00 03 0e 3a    	or     0x3a0e0300,%eax
 6ad:	0b 3b                	or     (%ebx),%edi
 6af:	0b 49 13             	or     0x13(%ecx),%ecx
 6b2:	02 18                	add    (%eax),%bl
 6b4:	00 00                	add    %al,(%eax)
 6b6:	0c 15                	or     $0x15,%al
 6b8:	01 01                	add    %eax,(%ecx)
 6ba:	13 00                	adc    (%eax),%eax
 6bc:	00 0d 18 00 00 00    	add    %cl,0x18
 6c2:	0e                   	push   %cs
 6c3:	0f 00 0b             	str    (%ebx)
 6c6:	0b 49 13             	or     0x13(%ecx),%ecx
 6c9:	00 00                	add    %al,(%eax)
 6cb:	0f 89 82 01 00 11    	jns    11000853 <cursor_x+0x10eeed6e>
 6d1:	01 31                	add    %esi,(%ecx)
 6d3:	13 00                	adc    (%eax),%eax
 6d5:	00 10                	add    %dl,(%eax)
 6d7:	2e 01 3f             	add    %edi,%cs:(%edi)
 6da:	19 03                	sbb    %eax,(%ebx)
 6dc:	0e                   	push   %cs
 6dd:	3a 0b                	cmp    (%ebx),%cl
 6df:	3b 0b                	cmp    (%ebx),%ecx
 6e1:	11 01                	adc    %eax,(%ecx)
 6e3:	12 06                	adc    (%esi),%al
 6e5:	40                   	inc    %eax
 6e6:	18 97 42 19 01 13    	sbb    %dl,0x13011942(%edi)
 6ec:	00 00                	add    %al,(%eax)
 6ee:	11 34 00             	adc    %esi,(%eax,%eax,1)
 6f1:	03 0e                	add    (%esi),%ecx
 6f3:	3a 0b                	cmp    (%ebx),%cl
 6f5:	3b 0b                	cmp    (%ebx),%ecx
 6f7:	49                   	dec    %ecx
 6f8:	13 02                	adc    (%edx),%eax
 6fa:	17                   	pop    %ss
 6fb:	00 00                	add    %al,(%eax)
 6fd:	12 89 82 01 00 11    	adc    0x11000182(%ecx),%cl
 703:	01 93 42 18 00 00    	add    %edx,0x1842(%ebx)
 709:	13 01                	adc    (%ecx),%eax
 70b:	01 49 13             	add    %ecx,0x13(%ecx)
 70e:	01 13                	add    %edx,(%ebx)
 710:	00 00                	add    %al,(%eax)
 712:	14 21                	adc    $0x21,%al
 714:	00 49 13             	add    %cl,0x13(%ecx)
 717:	2f                   	das    
 718:	0b 00                	or     (%eax),%eax
 71a:	00 15 0f 00 0b 0b    	add    %dl,0xb0b000f
 720:	00 00                	add    %al,(%eax)
 722:	16                   	push   %ss
 723:	34 00                	xor    $0x0,%al
 725:	03 0e                	add    (%esi),%ecx
 727:	3a 0b                	cmp    (%ebx),%cl
 729:	3b 0b                	cmp    (%ebx),%ecx
 72b:	49                   	dec    %ecx
 72c:	13 3f                	adc    (%edi),%edi
 72e:	19 02                	sbb    %eax,(%edx)
 730:	18 00                	sbb    %al,(%eax)
 732:	00 17                	add    %dl,(%edi)
 734:	2e 00 3f             	add    %bh,%cs:(%edi)
 737:	19 3c 19             	sbb    %edi,(%ecx,%ebx,1)
 73a:	6e                   	outsb  %ds:(%esi),(%dx)
 73b:	0e                   	push   %cs
 73c:	03 0e                	add    (%esi),%ecx
 73e:	3a 0b                	cmp    (%ebx),%cl
 740:	3b 0b                	cmp    (%ebx),%ecx
 742:	00 00                	add    %al,(%eax)
 744:	00 01                	add    %al,(%ecx)
 746:	11 01                	adc    %eax,(%ecx)
 748:	25 0e 13 0b 03       	and    $0x30b130e,%eax
 74d:	0e                   	push   %cs
 74e:	1b 0e                	sbb    (%esi),%ecx
 750:	11 01                	adc    %eax,(%ecx)
 752:	12 06                	adc    (%esi),%al
 754:	10 17                	adc    %dl,(%edi)
 756:	00 00                	add    %al,(%eax)
 758:	02 24 00             	add    (%eax,%eax,1),%ah
 75b:	0b 0b                	or     (%ebx),%ecx
 75d:	3e 0b 03             	or     %ds:(%ebx),%eax
 760:	08 00                	or     %al,(%eax)
 762:	00 03                	add    %al,(%ebx)
 764:	24 00                	and    $0x0,%al
 766:	0b 0b                	or     (%ebx),%ecx
 768:	3e 0b 03             	or     %ds:(%ebx),%eax
 76b:	0e                   	push   %cs
 76c:	00 00                	add    %al,(%eax)
 76e:	04 16                	add    $0x16,%al
 770:	00 03                	add    %al,(%ebx)
 772:	08 3a                	or     %bh,(%edx)
 774:	0b 3b                	or     (%ebx),%edi
 776:	0b 49 13             	or     0x13(%ecx),%ecx
 779:	00 00                	add    %al,(%eax)
 77b:	05 2e 01 3f 19       	add    $0x193f012e,%eax
 780:	03 0e                	add    (%esi),%ecx
 782:	3a 0b                	cmp    (%ebx),%cl
 784:	3b 0b                	cmp    (%ebx),%ecx
 786:	27                   	daa    
 787:	19 11                	sbb    %edx,(%ecx)
 789:	01 12                	add    %edx,(%edx)
 78b:	06                   	push   %es
 78c:	40                   	inc    %eax
 78d:	18 97 42 19 01 13    	sbb    %dl,0x13011942(%edi)
 793:	00 00                	add    %al,(%eax)
 795:	06                   	push   %es
 796:	05 00 03 0e 3a       	add    $0x3a0e0300,%eax
 79b:	0b 3b                	or     (%ebx),%edi
 79d:	0b 49 13             	or     0x13(%ecx),%ecx
 7a0:	02 18                	add    (%eax),%bl
 7a2:	00 00                	add    %al,(%eax)
 7a4:	07                   	pop    %es
 7a5:	05 00 03 08 3a       	add    $0x3a080300,%eax
 7aa:	0b 3b                	or     (%ebx),%edi
 7ac:	0b 49 13             	or     0x13(%ecx),%ecx
 7af:	02 18                	add    (%eax),%bl
 7b1:	00 00                	add    %al,(%eax)
 7b3:	08 2e                	or     %ch,(%esi)
 7b5:	01 3f                	add    %edi,(%edi)
 7b7:	19 03                	sbb    %eax,(%ebx)
 7b9:	08 3a                	or     %bh,(%edx)
 7bb:	0b 3b                	or     (%ebx),%edi
 7bd:	0b 27                	or     (%edi),%esp
 7bf:	19 49 13             	sbb    %ecx,0x13(%ecx)
 7c2:	11 01                	adc    %eax,(%ecx)
 7c4:	12 06                	adc    (%esi),%al
 7c6:	40                   	inc    %eax
 7c7:	18 97 42 19 00 00    	sbb    %dl,0x1942(%edi)
 7cd:	09 34 00             	or     %esi,(%eax,%eax,1)
 7d0:	03 08                	add    (%eax),%ecx
 7d2:	3a 0b                	cmp    (%ebx),%cl
 7d4:	3b 0b                	cmp    (%ebx),%ecx
 7d6:	49                   	dec    %ecx
 7d7:	13 02                	adc    (%edx),%eax
 7d9:	18 00                	sbb    %al,(%eax)
 7db:	00 00                	add    %al,(%eax)
 7dd:	01 11                	add    %edx,(%ecx)
 7df:	01 25 0e 13 0b 03    	add    %esp,0x30b130e
 7e5:	0e                   	push   %cs
 7e6:	1b 0e                	sbb    (%esi),%ecx
 7e8:	11 01                	adc    %eax,(%ecx)
 7ea:	12 06                	adc    (%esi),%al
 7ec:	10 17                	adc    %dl,(%edi)
 7ee:	00 00                	add    %al,(%eax)
 7f0:	02 24 00             	add    (%eax,%eax,1),%ah
 7f3:	0b 0b                	or     (%ebx),%ecx
 7f5:	3e 0b 03             	or     %ds:(%ebx),%eax
 7f8:	0e                   	push   %cs
 7f9:	00 00                	add    %al,(%eax)
 7fb:	03 24 00             	add    (%eax,%eax,1),%esp
 7fe:	0b 0b                	or     (%ebx),%ecx
 800:	3e 0b 03             	or     %ds:(%ebx),%eax
 803:	08 00                	or     %al,(%eax)
 805:	00 04 2e             	add    %al,(%esi,%ebp,1)
 808:	01 3f                	add    %edi,(%edi)
 80a:	19 03                	sbb    %eax,(%ebx)
 80c:	0e                   	push   %cs
 80d:	3a 0b                	cmp    (%ebx),%cl
 80f:	3b 0b                	cmp    (%ebx),%ecx
 811:	11 01                	adc    %eax,(%ecx)
 813:	12 06                	adc    (%esi),%al
 815:	40                   	inc    %eax
 816:	18 97 42 19 01 13    	sbb    %dl,0x13011942(%edi)
 81c:	00 00                	add    %al,(%eax)
 81e:	05 89 82 01 00       	add    $0x18289,%eax
 823:	11 01                	adc    %eax,(%ecx)
 825:	31 13                	xor    %edx,(%ebx)
 827:	00 00                	add    %al,(%eax)
 829:	06                   	push   %es
 82a:	2e 01 3f             	add    %edi,%cs:(%edi)
 82d:	19 03                	sbb    %eax,(%ebx)
 82f:	0e                   	push   %cs
 830:	3a 0b                	cmp    (%ebx),%cl
 832:	3b 0b                	cmp    (%ebx),%ecx
 834:	27                   	daa    
 835:	19 11                	sbb    %edx,(%ecx)
 837:	01 12                	add    %edx,(%edx)
 839:	06                   	push   %es
 83a:	40                   	inc    %eax
 83b:	18 97 42 19 01 13    	sbb    %dl,0x13011942(%edi)
 841:	00 00                	add    %al,(%eax)
 843:	07                   	pop    %es
 844:	05 00 03 08 3a       	add    $0x3a080300,%eax
 849:	0b 3b                	or     (%ebx),%edi
 84b:	0b 49 13             	or     0x13(%ecx),%ecx
 84e:	02 18                	add    (%eax),%bl
 850:	00 00                	add    %al,(%eax)
 852:	08 34 00             	or     %dh,(%eax,%eax,1)
 855:	03 0e                	add    (%esi),%ecx
 857:	3a 0b                	cmp    (%ebx),%cl
 859:	3b 0b                	cmp    (%ebx),%ecx
 85b:	49                   	dec    %ecx
 85c:	13 02                	adc    (%edx),%eax
 85e:	17                   	pop    %ss
 85f:	00 00                	add    %al,(%eax)
 861:	09 05 00 03 0e 3a    	or     %eax,0x3a0e0300
 867:	0b 3b                	or     (%ebx),%edi
 869:	0b 49 13             	or     0x13(%ecx),%ecx
 86c:	02 18                	add    (%eax),%bl
 86e:	00 00                	add    %al,(%eax)
 870:	0a 34 00             	or     (%eax,%eax,1),%dh
 873:	03 0e                	add    (%esi),%ecx
 875:	3a 0b                	cmp    (%ebx),%cl
 877:	3b 0b                	cmp    (%ebx),%ecx
 879:	49                   	dec    %ecx
 87a:	13 02                	adc    (%edx),%eax
 87c:	18 00                	sbb    %al,(%eax)
 87e:	00 0b                	add    %cl,(%ebx)
 880:	34 00                	xor    $0x0,%al
 882:	03 0e                	add    (%esi),%ecx
 884:	3a 0b                	cmp    (%ebx),%cl
 886:	3b 0b                	cmp    (%ebx),%ecx
 888:	49                   	dec    %ecx
 889:	13 3f                	adc    (%edi),%edi
 88b:	19 02                	sbb    %eax,(%edx)
 88d:	18 00                	sbb    %al,(%eax)
 88f:	00 0c 2e             	add    %cl,(%esi,%ebp,1)
 892:	00 3f                	add    %bh,(%edi)
 894:	19 3c 19             	sbb    %edi,(%ecx,%ebx,1)
 897:	6e                   	outsb  %ds:(%esi),(%dx)
 898:	0e                   	push   %cs
 899:	03 0e                	add    (%esi),%ecx
 89b:	3a 0b                	cmp    (%ebx),%cl
 89d:	3b 0b                	cmp    (%ebx),%ecx
 89f:	00 00                	add    %al,(%eax)
 8a1:	00 01                	add    %al,(%ecx)
 8a3:	11 01                	adc    %eax,(%ecx)
 8a5:	25 0e 13 0b 03       	and    $0x30b130e,%eax
 8aa:	0e                   	push   %cs
 8ab:	1b 0e                	sbb    (%esi),%ecx
 8ad:	11 01                	adc    %eax,(%ecx)
 8af:	12 06                	adc    (%esi),%al
 8b1:	10 17                	adc    %dl,(%edi)
 8b3:	00 00                	add    %al,(%eax)
 8b5:	02 24 00             	add    (%eax,%eax,1),%ah
 8b8:	0b 0b                	or     (%ebx),%ecx
 8ba:	3e 0b 03             	or     %ds:(%ebx),%eax
 8bd:	0e                   	push   %cs
 8be:	00 00                	add    %al,(%eax)
 8c0:	03 24 00             	add    (%eax,%eax,1),%esp
 8c3:	0b 0b                	or     (%ebx),%ecx
 8c5:	3e 0b 03             	or     %ds:(%ebx),%eax
 8c8:	08 00                	or     %al,(%eax)
 8ca:	00 04 2e             	add    %al,(%esi,%ebp,1)
 8cd:	01 3f                	add    %edi,(%edi)
 8cf:	19 03                	sbb    %eax,(%ebx)
 8d1:	0e                   	push   %cs
 8d2:	3a 0b                	cmp    (%ebx),%cl
 8d4:	3b 0b                	cmp    (%ebx),%ecx
 8d6:	11 01                	adc    %eax,(%ecx)
 8d8:	12 06                	adc    (%esi),%al
 8da:	40                   	inc    %eax
 8db:	18 97 42 19 01 13    	sbb    %dl,0x13011942(%edi)
 8e1:	00 00                	add    %al,(%eax)
 8e3:	05 34 00 03 0e       	add    $0xe030034,%eax
 8e8:	3a 0b                	cmp    (%ebx),%cl
 8ea:	3b 0b                	cmp    (%ebx),%ecx
 8ec:	49                   	dec    %ecx
 8ed:	13 02                	adc    (%edx),%eax
 8ef:	17                   	pop    %ss
 8f0:	00 00                	add    %al,(%eax)
 8f2:	06                   	push   %es
 8f3:	0b 01                	or     (%ecx),%eax
 8f5:	11 01                	adc    %eax,(%ecx)
 8f7:	12 06                	adc    (%esi),%al
 8f9:	01 13                	add    %edx,(%ebx)
 8fb:	00 00                	add    %al,(%eax)
 8fd:	07                   	pop    %es
 8fe:	34 00                	xor    $0x0,%al
 900:	03 08                	add    (%eax),%ecx
 902:	3a 0b                	cmp    (%ebx),%cl
 904:	3b 0b                	cmp    (%ebx),%ecx
 906:	49                   	dec    %ecx
 907:	13 00                	adc    (%eax),%eax
 909:	00 08                	add    %cl,(%eax)
 90b:	89 82 01 00 11 01    	mov    %eax,0x1110001(%edx)
 911:	31 13                	xor    %edx,(%ebx)
 913:	00 00                	add    %al,(%eax)
 915:	09 0f                	or     %ecx,(%edi)
 917:	00 0b                	add    %cl,(%ebx)
 919:	0b 49 13             	or     0x13(%ecx),%ecx
 91c:	00 00                	add    %al,(%eax)
 91e:	0a 01                	or     (%ecx),%al
 920:	01 49 13             	add    %ecx,0x13(%ecx)
 923:	01 13                	add    %edx,(%ebx)
 925:	00 00                	add    %al,(%eax)
 927:	0b 21                	or     (%ecx),%esp
 929:	00 49 13             	add    %cl,0x13(%ecx)
 92c:	2f                   	das    
 92d:	0b 00                	or     (%eax),%eax
 92f:	00 0c 26             	add    %cl,(%esi,%eiz,1)
 932:	00 49 13             	add    %cl,0x13(%ecx)
 935:	00 00                	add    %al,(%eax)
 937:	0d 34 00 03 0e       	or     $0xe030034,%eax
 93c:	3a 0b                	cmp    (%ebx),%cl
 93e:	3b 0b                	cmp    (%ebx),%ecx
 940:	49                   	dec    %ecx
 941:	13 3f                	adc    (%edi),%edi
 943:	19 02                	sbb    %eax,(%edx)
 945:	18 00                	sbb    %al,(%eax)
 947:	00 0e                	add    %cl,(%esi)
 949:	2e 00 3f             	add    %bh,%cs:(%edi)
 94c:	19 3c 19             	sbb    %edi,(%ecx,%ebx,1)
 94f:	6e                   	outsb  %ds:(%esi),(%dx)
 950:	0e                   	push   %cs
 951:	03 0e                	add    (%esi),%ecx
 953:	3a 0b                	cmp    (%ebx),%cl
 955:	3b 0b                	cmp    (%ebx),%ecx
 957:	00 00                	add    %al,(%eax)
 959:	0f 2e 00             	ucomiss (%eax),%xmm0
 95c:	3f                   	aas    
 95d:	19 3c 19             	sbb    %edi,(%ecx,%ebx,1)
 960:	6e                   	outsb  %ds:(%esi),(%dx)
 961:	08 03                	or     %al,(%ebx)
 963:	08 3a                	or     %bh,(%edx)
 965:	0b 3b                	or     (%ebx),%edi
 967:	0b 00                	or     (%eax),%eax
 969:	00 00                	add    %al,(%eax)
 96b:	01 11                	add    %edx,(%ecx)
 96d:	01 25 0e 13 0b 03    	add    %esp,0x30b130e
 973:	0e                   	push   %cs
 974:	1b 0e                	sbb    (%esi),%ecx
 976:	11 01                	adc    %eax,(%ecx)
 978:	12 06                	adc    (%esi),%al
 97a:	10 17                	adc    %dl,(%edi)
 97c:	00 00                	add    %al,(%eax)
 97e:	02 16                	add    (%esi),%dl
 980:	00 03                	add    %al,(%ebx)
 982:	0e                   	push   %cs
 983:	3a 0b                	cmp    (%ebx),%cl
 985:	3b 0b                	cmp    (%ebx),%ecx
 987:	49                   	dec    %ecx
 988:	13 00                	adc    (%eax),%eax
 98a:	00 03                	add    %al,(%ebx)
 98c:	24 00                	and    $0x0,%al
 98e:	0b 0b                	or     (%ebx),%ecx
 990:	3e 0b 03             	or     %ds:(%ebx),%eax
 993:	0e                   	push   %cs
 994:	00 00                	add    %al,(%eax)
 996:	04 24                	add    $0x24,%al
 998:	00 0b                	add    %cl,(%ebx)
 99a:	0b 3e                	or     (%esi),%edi
 99c:	0b 03                	or     (%ebx),%eax
 99e:	08 00                	or     %al,(%eax)
 9a0:	00 05 2e 01 03 0e    	add    %al,0xe03012e
 9a6:	3a 0b                	cmp    (%ebx),%cl
 9a8:	3b 0b                	cmp    (%ebx),%ecx
 9aa:	11 01                	adc    %eax,(%ecx)
 9ac:	12 06                	adc    (%esi),%al
 9ae:	40                   	inc    %eax
 9af:	18 97 42 19 01 13    	sbb    %dl,0x13011942(%edi)
 9b5:	00 00                	add    %al,(%eax)
 9b7:	06                   	push   %es
 9b8:	34 00                	xor    $0x0,%al
 9ba:	03 0e                	add    (%esi),%ecx
 9bc:	3a 0b                	cmp    (%ebx),%cl
 9be:	3b 0b                	cmp    (%ebx),%ecx
 9c0:	49                   	dec    %ecx
 9c1:	13 02                	adc    (%edx),%eax
 9c3:	17                   	pop    %ss
 9c4:	00 00                	add    %al,(%eax)
 9c6:	07                   	pop    %es
 9c7:	89 82 01 00 11 01    	mov    %eax,0x1110001(%edx)
 9cd:	31 13                	xor    %edx,(%ebx)
 9cf:	00 00                	add    %al,(%eax)
 9d1:	08 2e                	or     %ch,(%esi)
 9d3:	01 03                	add    %eax,(%ebx)
 9d5:	0e                   	push   %cs
 9d6:	3a 0b                	cmp    (%ebx),%cl
 9d8:	3b 0b                	cmp    (%ebx),%ecx
 9da:	20 0b                	and    %cl,(%ebx)
 9dc:	01 13                	add    %edx,(%ebx)
 9de:	00 00                	add    %al,(%eax)
 9e0:	09 34 00             	or     %esi,(%eax,%eax,1)
 9e3:	03 0e                	add    (%esi),%ecx
 9e5:	3a 0b                	cmp    (%ebx),%cl
 9e7:	3b 0b                	cmp    (%ebx),%ecx
 9e9:	49                   	dec    %ecx
 9ea:	13 00                	adc    (%eax),%eax
 9ec:	00 0a                	add    %cl,(%edx)
 9ee:	0b 01                	or     (%ecx),%eax
 9f0:	00 00                	add    %al,(%eax)
 9f2:	0b 34 00             	or     (%eax,%eax,1),%esi
 9f5:	03 08                	add    (%eax),%ecx
 9f7:	3a 0b                	cmp    (%ebx),%cl
 9f9:	3b 0b                	cmp    (%ebx),%ecx
 9fb:	49                   	dec    %ecx
 9fc:	13 00                	adc    (%eax),%eax
 9fe:	00 0c 2e             	add    %cl,(%esi,%ebp,1)
 a01:	01 3f                	add    %edi,(%edi)
 a03:	19 03                	sbb    %eax,(%ebx)
 a05:	0e                   	push   %cs
 a06:	3a 0b                	cmp    (%ebx),%cl
 a08:	3b 0b                	cmp    (%ebx),%ecx
 a0a:	27                   	daa    
 a0b:	19 11                	sbb    %edx,(%ecx)
 a0d:	01 12                	add    %edx,(%edx)
 a0f:	06                   	push   %es
 a10:	40                   	inc    %eax
 a11:	18 97 42 19 01 13    	sbb    %dl,0x13011942(%edi)
 a17:	00 00                	add    %al,(%eax)
 a19:	0d 05 00 03 08       	or     $0x8030005,%eax
 a1e:	3a 0b                	cmp    (%ebx),%cl
 a20:	3b 0b                	cmp    (%ebx),%ecx
 a22:	49                   	dec    %ecx
 a23:	13 02                	adc    (%edx),%eax
 a25:	18 00                	sbb    %al,(%eax)
 a27:	00 0e                	add    %cl,(%esi)
 a29:	34 00                	xor    $0x0,%al
 a2b:	03 0e                	add    (%esi),%ecx
 a2d:	3a 0b                	cmp    (%ebx),%cl
 a2f:	3b 0b                	cmp    (%ebx),%ecx
 a31:	49                   	dec    %ecx
 a32:	13 1c 0b             	adc    (%ebx,%ecx,1),%ebx
 a35:	00 00                	add    %al,(%eax)
 a37:	0f 34                	sysenter 
 a39:	00 03                	add    %al,(%ebx)
 a3b:	0e                   	push   %cs
 a3c:	3a 0b                	cmp    (%ebx),%cl
 a3e:	3b 0b                	cmp    (%ebx),%ecx
 a40:	49                   	dec    %ecx
 a41:	13 1c 05 00 00 10 1d 	adc    0x1d100000(,%eax,1),%ebx
 a48:	01 31                	add    %esi,(%ecx)
 a4a:	13 11                	adc    (%ecx),%edx
 a4c:	01 12                	add    %edx,(%edx)
 a4e:	06                   	push   %es
 a4f:	58                   	pop    %eax
 a50:	0b 59 0b             	or     0xb(%ecx),%ebx
 a53:	01 13                	add    %edx,(%ebx)
 a55:	00 00                	add    %al,(%eax)
 a57:	11 0b                	adc    %ecx,(%ebx)
 a59:	01 11                	add    %edx,(%ecx)
 a5b:	01 12                	add    %edx,(%edx)
 a5d:	06                   	push   %es
 a5e:	00 00                	add    %al,(%eax)
 a60:	12 34 00             	adc    (%eax,%eax,1),%dh
 a63:	31 13                	xor    %edx,(%ebx)
 a65:	1c 0b                	sbb    $0xb,%al
 a67:	00 00                	add    %al,(%eax)
 a69:	13 34 00             	adc    (%eax,%eax,1),%esi
 a6c:	31 13                	xor    %edx,(%ebx)
 a6e:	1c 05                	sbb    $0x5,%al
 a70:	00 00                	add    %al,(%eax)
 a72:	14 34                	adc    $0x34,%al
 a74:	00 31                	add    %dh,(%ecx)
 a76:	13 02                	adc    (%edx),%eax
 a78:	17                   	pop    %ss
 a79:	00 00                	add    %al,(%eax)
 a7b:	15 89 82 01 00       	adc    $0x18289,%eax
 a80:	11 01                	adc    %eax,(%ecx)
 a82:	95                   	xchg   %eax,%ebp
 a83:	42                   	inc    %edx
 a84:	19 31                	sbb    %esi,(%ecx)
 a86:	13 00                	adc    (%eax),%eax
 a88:	00 16                	add    %dl,(%esi)
 a8a:	0f 00 0b             	str    (%ebx)
 a8d:	0b 49 13             	or     0x13(%ecx),%ecx
 a90:	00 00                	add    %al,(%eax)
 a92:	17                   	pop    %ss
 a93:	2e 01 3f             	add    %edi,%cs:(%edi)
 a96:	19 03                	sbb    %eax,(%ebx)
 a98:	0e                   	push   %cs
 a99:	3a 0b                	cmp    (%ebx),%cl
 a9b:	3b 0b                	cmp    (%ebx),%ecx
 a9d:	11 01                	adc    %eax,(%ecx)
 a9f:	12 06                	adc    (%esi),%al
 aa1:	40                   	inc    %eax
 aa2:	18 97 42 19 01 13    	sbb    %dl,0x13011942(%edi)
 aa8:	00 00                	add    %al,(%eax)
 aaa:	18 34 00             	sbb    %dh,(%eax,%eax,1)
 aad:	03 08                	add    (%eax),%ecx
 aaf:	3a 0b                	cmp    (%ebx),%cl
 ab1:	3b 0b                	cmp    (%ebx),%ecx
 ab3:	49                   	dec    %ecx
 ab4:	13 02                	adc    (%edx),%eax
 ab6:	17                   	pop    %ss
 ab7:	00 00                	add    %al,(%eax)
 ab9:	19 34 00             	sbb    %esi,(%eax,%eax,1)
 abc:	03 08                	add    (%eax),%ecx
 abe:	3a 0b                	cmp    (%ebx),%cl
 ac0:	3b 0b                	cmp    (%ebx),%ecx
 ac2:	49                   	dec    %ecx
 ac3:	13 02                	adc    (%edx),%eax
 ac5:	18 00                	sbb    %al,(%eax)
 ac7:	00 1a                	add    %bl,(%edx)
 ac9:	01 01                	add    %eax,(%ecx)
 acb:	49                   	dec    %ecx
 acc:	13 01                	adc    (%ecx),%eax
 ace:	13 00                	adc    (%eax),%eax
 ad0:	00 1b                	add    %bl,(%ebx)
 ad2:	21 00                	and    %eax,(%eax)
 ad4:	49                   	dec    %ecx
 ad5:	13 2f                	adc    (%edi),%ebp
 ad7:	0b 00                	or     (%eax),%eax
 ad9:	00 1c 34             	add    %bl,(%esp,%esi,1)
 adc:	00 03                	add    %al,(%ebx)
 ade:	0e                   	push   %cs
 adf:	3a 0b                	cmp    (%ebx),%cl
 ae1:	3b 0b                	cmp    (%ebx),%ecx
 ae3:	49                   	dec    %ecx
 ae4:	13 3f                	adc    (%edi),%edi
 ae6:	19 02                	sbb    %eax,(%edx)
 ae8:	18 00                	sbb    %al,(%eax)
 aea:	00 1d 2e 00 3f 19    	add    %bl,0x193f002e
 af0:	3c 19                	cmp    $0x19,%al
 af2:	6e                   	outsb  %ds:(%esi),(%dx)
 af3:	0e                   	push   %cs
 af4:	03 0e                	add    (%esi),%ecx
 af6:	3a 0b                	cmp    (%ebx),%cl
 af8:	3b 0b                	cmp    (%ebx),%ecx
 afa:	00 00                	add    %al,(%eax)
 afc:	00 01                	add    %al,(%ecx)
 afe:	11 01                	adc    %eax,(%ecx)
 b00:	25 0e 13 0b 03       	and    $0x30b130e,%eax
 b05:	0e                   	push   %cs
 b06:	1b 0e                	sbb    (%esi),%ecx
 b08:	11 01                	adc    %eax,(%ecx)
 b0a:	12 06                	adc    (%esi),%al
 b0c:	10 17                	adc    %dl,(%edi)
 b0e:	00 00                	add    %al,(%eax)
 b10:	02 24 00             	add    (%eax,%eax,1),%ah
 b13:	0b 0b                	or     (%ebx),%ecx
 b15:	3e 0b 03             	or     %ds:(%ebx),%eax
 b18:	08 00                	or     %al,(%eax)
 b1a:	00 03                	add    %al,(%ebx)
 b1c:	16                   	push   %ss
 b1d:	00 03                	add    %al,(%ebx)
 b1f:	0e                   	push   %cs
 b20:	3a 0b                	cmp    (%ebx),%cl
 b22:	3b 0b                	cmp    (%ebx),%ecx
 b24:	49                   	dec    %ecx
 b25:	13 00                	adc    (%eax),%eax
 b27:	00 04 24             	add    %al,(%esp)
 b2a:	00 0b                	add    %cl,(%ebx)
 b2c:	0b 3e                	or     (%esi),%edi
 b2e:	0b 03                	or     (%ebx),%eax
 b30:	0e                   	push   %cs
 b31:	00 00                	add    %al,(%eax)
 b33:	05 2e 01 3f 19       	add    $0x193f012e,%eax
 b38:	03 0e                	add    (%esi),%ecx
 b3a:	3a 0b                	cmp    (%ebx),%cl
 b3c:	3b 0b                	cmp    (%ebx),%ecx
 b3e:	27                   	daa    
 b3f:	19 49 13             	sbb    %ecx,0x13(%ecx)
 b42:	11 01                	adc    %eax,(%ecx)
 b44:	12 06                	adc    (%esi),%al
 b46:	40                   	inc    %eax
 b47:	18 97 42 19 01 13    	sbb    %dl,0x13011942(%edi)
 b4d:	00 00                	add    %al,(%eax)
 b4f:	06                   	push   %es
 b50:	05 00 03 08 3a       	add    $0x3a080300,%eax
 b55:	0b 3b                	or     (%ebx),%edi
 b57:	0b 49 13             	or     0x13(%ecx),%ecx
 b5a:	02 17                	add    (%edi),%dl
 b5c:	00 00                	add    %al,(%eax)
 b5e:	07                   	pop    %es
 b5f:	05 00 03 08 3a       	add    $0x3a080300,%eax
 b64:	0b 3b                	or     (%ebx),%edi
 b66:	0b 49 13             	or     0x13(%ecx),%ecx
 b69:	02 18                	add    (%eax),%bl
 b6b:	00 00                	add    %al,(%eax)
 b6d:	08 34 00             	or     %dh,(%eax,%eax,1)
 b70:	03 08                	add    (%eax),%ecx
 b72:	3a 0b                	cmp    (%ebx),%cl
 b74:	3b 0b                	cmp    (%ebx),%ecx
 b76:	49                   	dec    %ecx
 b77:	13 02                	adc    (%edx),%eax
 b79:	17                   	pop    %ss
 b7a:	00 00                	add    %al,(%eax)
 b7c:	09 0b                	or     %ecx,(%ebx)
 b7e:	01 55 17             	add    %edx,0x17(%ebp)
 b81:	00 00                	add    %al,(%eax)
 b83:	0a 0f                	or     (%edi),%cl
 b85:	00 0b                	add    %cl,(%ebx)
 b87:	0b 00                	or     (%eax),%eax
 b89:	00 0b                	add    %cl,(%ebx)
 b8b:	0f 00 0b             	str    (%ebx)
 b8e:	0b 49 13             	or     0x13(%ecx),%ecx
 b91:	00 00                	add    %al,(%eax)
	...

Disassembly of section .debug_aranges:

00000000 <.debug_aranges>:
   0:	1c 00                	sbb    $0x0,%al
   2:	00 00                	add    %al,(%eax)
   4:	02 00                	add    (%eax),%al
   6:	00 00                	add    %al,(%eax)
   8:	00 00                	add    %al,(%eax)
   a:	04 00                	add    $0x0,%al
   c:	00 00                	add    %al,(%eax)
   e:	00 00                	add    %al,(%eax)
  10:	8c 00                	mov    %es,(%eax)
  12:	10 00                	adc    %al,(%eax)
  14:	2d 00 00 00 00       	sub    $0x0,%eax
  19:	00 00                	add    %al,(%eax)
  1b:	00 00                	add    %al,(%eax)
  1d:	00 00                	add    %al,(%eax)
  1f:	00 1c 00             	add    %bl,(%eax,%eax,1)
  22:	00 00                	add    %al,(%eax)
  24:	02 00                	add    (%eax),%al
  26:	54                   	push   %esp
  27:	02 00                	add    (%eax),%al
  29:	00 04 00             	add    %al,(%eax,%eax,1)
  2c:	00 00                	add    %al,(%eax)
  2e:	00 00                	add    %al,(%eax)
  30:	c2 00 10             	ret    $0x1000
  33:	00 68 02             	add    %ch,0x2(%eax)
	...
  3e:	00 00                	add    %al,(%eax)
  40:	1c 00                	sbb    $0x0,%al
  42:	00 00                	add    %al,(%eax)
  44:	02 00                	add    (%eax),%al
  46:	c4 05 00 00 04 00    	les    0x40000,%eax
  4c:	00 00                	add    %al,(%eax)
  4e:	00 00                	add    %al,(%eax)
  50:	2a 03                	sub    (%ebx),%al
  52:	10 00                	adc    %al,(%eax)
  54:	ce                   	into   
	...
  5d:	00 00                	add    %al,(%eax)
  5f:	00 1c 00             	add    %bl,(%eax,%eax,1)
  62:	00 00                	add    %al,(%eax)
  64:	02 00                	add    (%eax),%al
  66:	36 08 00             	or     %al,%ss:(%eax)
  69:	00 04 00             	add    %al,(%eax,%eax,1)
  6c:	00 00                	add    %al,(%eax)
  6e:	00 00                	add    %al,(%eax)
  70:	f8                   	clc    
  71:	03 10                	add    (%eax),%edx
  73:	00 cd                	add    %cl,%ch
	...
  7d:	00 00                	add    %al,(%eax)
  7f:	00 1c 00             	add    %bl,(%eax,%eax,1)
  82:	00 00                	add    %al,(%eax)
  84:	02 00                	add    (%eax),%al
  86:	ac                   	lods   %ds:(%esi),%al
  87:	09 00                	or     %eax,(%eax)
  89:	00 04 00             	add    %al,(%eax,%eax,1)
  8c:	00 00                	add    %al,(%eax)
  8e:	00 00                	add    %al,(%eax)
  90:	ff 05 10 00 0b 03    	incl   0x30b0010
	...
  9e:	00 00                	add    %al,(%eax)
  a0:	1c 00                	sbb    $0x0,%al
  a2:	00 00                	add    %al,(%eax)
  a4:	02 00                	add    (%eax),%al
  a6:	a5                   	movsl  %ds:(%esi),%es:(%edi)
  a7:	0c 00                	or     $0x0,%al
  a9:	00 04 00             	add    %al,(%eax,%eax,1)
  ac:	00 00                	add    %al,(%eax)
  ae:	00 00                	add    %al,(%eax)
  b0:	0a 09                	or     (%ecx),%cl
  b2:	10 00                	adc    %al,(%eax)
  b4:	51                   	push   %ecx
	...
  bd:	00 00                	add    %al,(%eax)
  bf:	00 1c 00             	add    %bl,(%eax,%eax,1)
  c2:	00 00                	add    %al,(%eax)
  c4:	02 00                	add    (%eax),%al
  c6:	86 0e                	xchg   %cl,(%esi)
  c8:	00 00                	add    %al,(%eax)
  ca:	04 00                	add    $0x0,%al
  cc:	00 00                	add    %al,(%eax)
  ce:	00 00                	add    %al,(%eax)
  d0:	5b                   	pop    %ebx
  d1:	09 10                	or     %edx,(%eax)
  d3:	00 7f 02             	add    %bh,0x2(%edi)
	...
  de:	00 00                	add    %al,(%eax)
  e0:	1c 00                	sbb    $0x0,%al
  e2:	00 00                	add    %al,(%eax)
  e4:	02 00                	add    (%eax),%al
  e6:	2e 12 00             	adc    %cs:(%eax),%al
  e9:	00 04 00             	add    %al,(%eax,%eax,1)
  ec:	00 00                	add    %al,(%eax)
  ee:	00 00                	add    %al,(%eax)
  f0:	79 0c                	jns    fe <multiboot_header-0xfff82>
  f2:	10 00                	adc    %al,(%eax)
  f4:	15 00 00 00 00       	adc    $0x0,%eax
  f9:	00 00                	add    %al,(%eax)
  fb:	00 00                	add    %al,(%eax)
  fd:	00 00                	add    %al,(%eax)
  ff:	00 1c 00             	add    %bl,(%eax,%eax,1)
 102:	00 00                	add    %al,(%eax)
 104:	02 00                	add    (%eax),%al
 106:	0b 13                	or     (%ebx),%edx
 108:	00 00                	add    %al,(%eax)
 10a:	04 00                	add    $0x0,%al
 10c:	00 00                	add    %al,(%eax)
 10e:	00 00                	add    %al,(%eax)
 110:	8e 0c 10             	mov    (%eax,%edx,1),%cs
 113:	00 94 00 00 00 00 00 	add    %dl,0x0(%eax,%eax,1)
 11a:	00 00                	add    %al,(%eax)
 11c:	00 00                	add    %al,(%eax)
 11e:	00 00                	add    %al,(%eax)
 120:	1c 00                	sbb    $0x0,%al
 122:	00 00                	add    %al,(%eax)
 124:	02 00                	add    (%eax),%al
 126:	6c                   	insb   (%dx),%es:(%edi)
 127:	14 00                	adc    $0x0,%al
 129:	00 04 00             	add    %al,(%eax,%eax,1)
 12c:	00 00                	add    %al,(%eax)
 12e:	00 00                	add    %al,(%eax)
 130:	22 0d 10 00 5c 00    	and    0x5c0010,%cl
	...
 13e:	00 00                	add    %al,(%eax)
 140:	1c 00                	sbb    $0x0,%al
 142:	00 00                	add    %al,(%eax)
 144:	02 00                	add    (%eax),%al
 146:	a7                   	cmpsl  %es:(%edi),%ds:(%esi)
 147:	15 00 00 04 00       	adc    $0x40000,%eax
 14c:	00 00                	add    %al,(%eax)
 14e:	00 00                	add    %al,(%eax)
 150:	7e 0d                	jle    15f <multiboot_header-0xfff21>
 152:	10 00                	adc    %al,(%eax)
 154:	6d                   	insl   (%dx),%es:(%edi)
 155:	02 00                	add    (%eax),%al
	...
 15f:	00 1c 00             	add    %bl,(%eax,%eax,1)
 162:	00 00                	add    %al,(%eax)
 164:	02 00                	add    (%eax),%al
 166:	1c 19                	sbb    $0x19,%al
 168:	00 00                	add    %al,(%eax)
 16a:	04 00                	add    $0x0,%al
 16c:	00 00                	add    %al,(%eax)
 16e:	00 00                	add    %al,(%eax)
 170:	eb 0f                	jmp    181 <multiboot_header-0xffeff>
 172:	10 00                	adc    %al,(%eax)
 174:	18 00                	sbb    %al,(%eax)
	...

Disassembly of section .debug_line:

00000000 <.debug_line>:
   0:	99                   	cltd   
   1:	00 00                	add    %al,(%eax)
   3:	00 02                	add    %al,(%edx)
   5:	00 6e 00             	add    %ch,0x0(%esi)
   8:	00 00                	add    %al,(%eax)
   a:	01 01                	add    %eax,(%ecx)
   c:	fb                   	sti    
   d:	0e                   	push   %cs
   e:	0d 00 01 01 01       	or     $0x1010100,%eax
  13:	01 00                	add    %eax,(%eax)
  15:	00 00                	add    %al,(%eax)
  17:	01 00                	add    %eax,(%eax)
  19:	00 01                	add    %al,(%ecx)
  1b:	69 6e 63 6c 75 64 65 	imul   $0x6564756c,0x63(%esi),%ebp
  22:	00 00                	add    %al,(%eax)
  24:	6b 2e 63             	imul   $0x63,(%esi),%ebp
  27:	00 00                	add    %al,(%eax)
  29:	00 00                	add    %al,(%eax)
  2b:	6d                   	insl   (%dx),%es:(%edi)
  2c:	75 6c                	jne    9a <multiboot_header-0xfffe6>
  2e:	74 69                	je     99 <multiboot_header-0xfffe7>
  30:	62 6f 6f             	bound  %ebp,0x6f(%edi)
  33:	74 2e                	je     63 <multiboot_header-0x10001d>
  35:	68 00 01 00 00       	push   $0x100
  3a:	77 72                	ja     ae <multiboot_header-0xfffd2>
  3c:	69 74 65 2e 68 00 01 	imul   $0x10068,0x2e(%ebp,%eiz,2),%esi
  43:	00 
  44:	00 67 64             	add    %ah,0x64(%edi)
  47:	74 2e                	je     77 <multiboot_header-0x100009>
  49:	68 00 01 00 00       	push   $0x100
  4e:	69 64 74 2e 68 00 01 	imul   $0x10068,0x2e(%esp,%esi,2),%esp
  55:	00 
  56:	00 69 72             	add    %ch,0x72(%ecx)
  59:	71 2e                	jno    89 <multiboot_header-0xffff7>
  5b:	68 00 01 00 00       	push   $0x100
  60:	70 69                	jo     cb <multiboot_header-0xfffb5>
  62:	74 2e                	je     92 <multiboot_header-0xfffee>
  64:	68 00 01 00 00       	push   $0x100
  69:	6b 65 79 62          	imul   $0x62,0x79(%ebp),%esp
  6d:	6f                   	outsl  %ds:(%esi),(%dx)
  6e:	61                   	popa   
  6f:	72 64                	jb     d5 <multiboot_header-0xfffab>
  71:	2e 68 00 01 00 00    	cs push $0x100
  77:	00 00                	add    %al,(%eax)
  79:	05 02 8c 00 10       	add    $0x10008c02,%eax
  7e:	00 03                	add    %al,(%ebx)
  80:	23 01                	and    (%ecx),%eax
  82:	6a 5a                	push   $0x5a
  84:	59                   	pop    %ecx
  85:	59                   	pop    %ecx
  86:	59                   	pop    %ecx
  87:	21 59 00             	and    %ebx,0x0(%ecx)
  8a:	02 04 01             	add    (%ecx,%eax,1),%al
  8d:	5b                   	pop    %ebx
  8e:	00 02                	add    %al,(%edx)
  90:	04 01                	add    $0x1,%al
  92:	2f                   	das    
  93:	00 02                	add    %al,(%edx)
  95:	04 01                	add    $0x1,%al
  97:	2f                   	das    
  98:	02 04 00             	add    (%eax,%eax,1),%al
  9b:	01 01                	add    %eax,(%ecx)
  9d:	59                   	pop    %ecx
  9e:	01 00                	add    %eax,(%eax)
  a0:	00 02                	add    %al,(%edx)
  a2:	00 61 00             	add    %ah,0x0(%ecx)
  a5:	00 00                	add    %al,(%eax)
  a7:	01 01                	add    %eax,(%ecx)
  a9:	fb                   	sti    
  aa:	0e                   	push   %cs
  ab:	0d 00 01 01 01       	or     $0x1010100,%eax
  b0:	01 00                	add    %eax,(%eax)
  b2:	00 00                	add    %al,(%eax)
  b4:	01 00                	add    %eax,(%eax)
  b6:	00 01                	add    %al,(%ecx)
  b8:	2f                   	das    
  b9:	75 73                	jne    12e <multiboot_header-0xfff52>
  bb:	72 2f                	jb     ec <multiboot_header-0xfff94>
  bd:	6c                   	insb   (%dx),%es:(%edi)
  be:	69 62 2f 67 63 63 2f 	imul   $0x2f636367,0x2f(%edx),%esp
  c5:	69 36 38 36 2d 6c    	imul   $0x6c2d3638,(%esi),%esi
  cb:	69 6e 75 78 2d 67 6e 	imul   $0x6e672d78,0x75(%esi),%ebp
  d2:	75 2f                	jne    103 <multiboot_header-0xfff7d>
  d4:	35 2f 69 6e 63       	xor    $0x636e692f,%eax
  d9:	6c                   	insb   (%dx),%es:(%edi)
  da:	75 64                	jne    140 <multiboot_header-0xfff40>
  dc:	65 00 69 6e          	add    %ch,%gs:0x6e(%ecx)
  e0:	63 6c 75 64          	arpl   %bp,0x64(%ebp,%esi,2)
  e4:	65 00 00             	add    %al,%gs:(%eax)
  e7:	6c                   	insb   (%dx),%es:(%edi)
  e8:	69 62 76 67 61 2e 63 	imul   $0x632e6167,0x76(%edx),%esp
  ef:	00 00                	add    %al,(%eax)
  f1:	00 00                	add    %al,(%eax)
  f3:	73 74                	jae    169 <multiboot_header-0xfff17>
  f5:	64 64 65 66 2e 68 00 	fs fs gs cs pushw $0x100
  fc:	01 
  fd:	00 00                	add    %al,(%eax)
  ff:	69 6f 2e 68 00 02 00 	imul   $0x20068,0x2e(%edi),%ebp
 106:	00 00                	add    %al,(%eax)
 108:	00 05 02 c2 00 10    	add    %al,0x1000c202
 10e:	00 03                	add    %al,(%ebx)
 110:	ca 01 01             	lret   $0x101
 113:	59                   	pop    %ecx
 114:	2f                   	das    
 115:	2d 73 3d 59 00       	sub    $0x593d73,%eax
 11a:	02 04 01             	add    (%ecx,%eax,1),%al
 11d:	06                   	push   %es
 11e:	3c 00                	cmp    $0x0,%al
 120:	02 04 03             	add    (%ebx,%eax,1),%al
 123:	06                   	push   %es
 124:	59                   	pop    %ecx
 125:	00 02                	add    %al,(%edx)
 127:	04 03                	add    $0x3,%al
 129:	08 59 00             	or     %bl,0x0(%ecx)
 12c:	02 04 03             	add    (%ebx,%eax,1),%al
 12f:	08 59 00             	or     %bl,0x0(%ecx)
 132:	02 04 03             	add    (%ebx,%eax,1),%al
 135:	47                   	inc    %edi
 136:	00 02                	add    %al,(%edx)
 138:	04 03                	add    $0x3,%al
 13a:	23 00                	and    (%eax),%eax
 13c:	02 04 03             	add    (%ebx,%eax,1),%al
 13f:	08 1d 5d 03 44 74    	or     %bl,0x7444035d
 145:	58                   	pop    %eax
 146:	33 5c 2a 00          	xor    0x0(%edx,%ebp,1),%ebx
 14a:	02 04 03             	add    (%ebx,%eax,1),%al
 14d:	db 00                	fildl  (%eax)
 14f:	02 04 03             	add    (%ebx,%eax,1),%al
 152:	c9                   	leave  
 153:	00 02                	add    %al,(%edx)
 155:	04 03                	add    $0x3,%al
 157:	64 00 02             	add    %al,%fs:(%edx)
 15a:	04 03                	add    $0x3,%al
 15c:	22 00                	and    (%eax),%al
 15e:	02 04 03             	add    (%ebx,%eax,1),%al
 161:	b8 89 d7 bb 08       	mov    $0x8bbd789,%eax
 166:	2f                   	das    
 167:	95                   	xchg   %eax,%ebp
 168:	29 59 bb             	sub    %ebx,-0x45(%ecx)
 16b:	f3 4b                	repz dec %ebx
 16d:	00 02                	add    %al,(%edx)
 16f:	04 03                	add    $0x3,%al
 171:	76 00                	jbe    173 <multiboot_header-0xfff0d>
 173:	02 04 03             	add    (%ebx,%eax,1),%al
 176:	c9                   	leave  
 177:	00 02                	add    %al,(%edx)
 179:	04 03                	add    $0x3,%al
 17b:	64 00 02             	add    %al,%fs:(%edx)
 17e:	04 03                	add    $0x3,%al
 180:	22 00                	and    (%eax),%al
 182:	02 04 03             	add    (%ebx,%eax,1),%al
 185:	b8 00 02 04 03       	mov    $0x3040200,%eax
 18a:	a6                   	cmpsb  %es:(%edi),%ds:(%esi)
 18b:	00 02                	add    %al,(%edx)
 18d:	04 03                	add    $0x3,%al
 18f:	c9                   	leave  
 190:	00 02                	add    %al,(%edx)
 192:	04 03                	add    $0x3,%al
 194:	64 00 02             	add    %al,%fs:(%edx)
 197:	04 03                	add    $0x3,%al
 199:	22 00                	and    (%eax),%al
 19b:	02 04 03             	add    (%ebx,%eax,1),%al
 19e:	b8 89 3d 2d 00       	mov    $0x2d3d89,%eax
 1a3:	02 04 03             	add    (%ebx,%eax,1),%al
 1a6:	ca 00 02             	lret   $0x200
 1a9:	04 03                	add    $0x3,%al
 1ab:	c9                   	leave  
 1ac:	00 02                	add    %al,(%edx)
 1ae:	04 03                	add    $0x3,%al
 1b0:	64 00 02             	add    %al,%fs:(%edx)
 1b3:	04 03                	add    $0x3,%al
 1b5:	22 00                	and    (%eax),%al
 1b7:	02 04 03             	add    (%ebx,%eax,1),%al
 1ba:	b8 87 c9 d9 08       	mov    $0x8d9c987,%eax
 1bf:	13 08                	adc    (%eax),%ecx
 1c1:	13 03                	adc    (%ebx),%eax
 1c3:	0d 9e 69 bb 03       	or     $0x3bb699e,%eax
 1c8:	0d 08 4a 31 21       	or     $0x21314a08,%eax
 1cd:	57                   	push   %edi
 1ce:	59                   	pop    %ecx
 1cf:	5b                   	pop    %ebx
 1d0:	59                   	pop    %ecx
 1d1:	00 02                	add    %al,(%edx)
 1d3:	04 03                	add    $0x3,%al
 1d5:	2f                   	das    
 1d6:	00 02                	add    %al,(%edx)
 1d8:	04 03                	add    $0x3,%al
 1da:	3b 00                	cmp    (%eax),%eax
 1dc:	02 04 03             	add    (%ebx,%eax,1),%al
 1df:	21 00                	and    %eax,(%eax)
 1e1:	02 04 03             	add    (%ebx,%eax,1),%al
 1e4:	65 84 31             	test   %dh,%gs:(%ecx)
 1e7:	68 59 00 02 04       	push   $0x4020059
 1ec:	03 2f                	add    (%edi),%ebp
 1ee:	00 02                	add    %al,(%edx)
 1f0:	04 03                	add    $0x3,%al
 1f2:	8f                   	(bad)  
 1f3:	94                   	xchg   %eax,%esp
 1f4:	1f                   	pop    %ds
 1f5:	02 0a                	add    (%edx),%cl
 1f7:	00 01                	add    %al,(%ecx)
 1f9:	01 83 00 00 00 02    	add    %eax,0x2000000(%ebx)
 1ff:	00 42 00             	add    %al,0x0(%edx)
 202:	00 00                	add    %al,(%eax)
 204:	01 01                	add    %eax,(%ecx)
 206:	fb                   	sti    
 207:	0e                   	push   %cs
 208:	0d 00 01 01 01       	or     $0x1010100,%eax
 20d:	01 00                	add    %eax,(%eax)
 20f:	00 00                	add    %al,(%eax)
 211:	01 00                	add    %eax,(%eax)
 213:	00 01                	add    %al,(%ecx)
 215:	69 6e 63 6c 75 64 65 	imul   $0x6564756c,0x63(%esi),%ebp
 21c:	2f                   	das    
 21d:	6b 00 69             	imul   $0x69,(%eax),%eax
 220:	6e                   	outsb  %ds:(%esi),(%dx)
 221:	63 6c 75 64          	arpl   %bp,0x64(%ebp,%esi,2)
 225:	65 00 00             	add    %al,%gs:(%eax)
 228:	67 64 74 2e          	addr16 fs je 25a <multiboot_header-0xffe26>
 22c:	63 00                	arpl   %ax,(%eax)
 22e:	00 00                	add    %al,(%eax)
 230:	00 74 79 70          	add    %dh,0x70(%ecx,%edi,2)
 234:	65 73 2e             	gs jae 265 <multiboot_header-0xffe1b>
 237:	68 00 01 00 00       	push   $0x100
 23c:	67 64 74 2e          	addr16 fs je 26e <multiboot_header-0xffe12>
 240:	68 00 02 00 00       	push   $0x200
 245:	00 00                	add    %al,(%eax)
 247:	05 02 2a 03 10       	add    $0x10032a02,%eax
 24c:	00 03                	add    %al,(%ebx)
 24e:	0e                   	push   %cs
 24f:	01 21                	add    %esp,(%ecx)
 251:	91                   	xchg   %eax,%ecx
 252:	03 28                	add    (%eax),%ebp
 254:	9e                   	sahf   
 255:	03 56 90             	add    -0x70(%esi),%edx
 258:	03 2b                	add    (%ebx),%ebp
 25a:	2e 75 76             	jne,pn 2d3 <multiboot_header-0xffdad>
 25d:	91                   	xchg   %eax,%ecx
 25e:	77 03                	ja     263 <multiboot_header-0xffe1d>
 260:	78 74                	js     2d6 <multiboot_header-0xffdaa>
 262:	91                   	xchg   %eax,%ecx
 263:	75 76                	jne    2db <multiboot_header-0xffda5>
 265:	93                   	xchg   %eax,%ebx
 266:	75 03                	jne    26b <multiboot_header-0xffe15>
 268:	78 74                	js     2de <multiboot_header-0xffda2>
 26a:	91                   	xchg   %eax,%ecx
 26b:	75 76                	jne    2e3 <multiboot_header-0xffd9d>
 26d:	93                   	xchg   %eax,%ebx
 26e:	75 03                	jne    273 <multiboot_header-0xffe0d>
 270:	5a                   	pop    %edx
 271:	74 79                	je     2ec <multiboot_header-0xffd94>
 273:	be 3e 4b 2f 2f       	mov    $0x2f2f4b3e,%esi
 278:	2f                   	das    
 279:	2f                   	das    
 27a:	30 89 02 02 00 01    	xor    %cl,0x1000202(%ecx)
 280:	01 9f 00 00 00 02    	add    %ebx,0x2000000(%edi)
 286:	00 60 00             	add    %ah,0x0(%eax)
 289:	00 00                	add    %al,(%eax)
 28b:	01 01                	add    %eax,(%ecx)
 28d:	fb                   	sti    
 28e:	0e                   	push   %cs
 28f:	0d 00 01 01 01       	or     $0x1010100,%eax
 294:	01 00                	add    %eax,(%eax)
 296:	00 00                	add    %al,(%eax)
 298:	01 00                	add    %eax,(%eax)
 29a:	00 01                	add    %al,(%ecx)
 29c:	2f                   	das    
 29d:	75 73                	jne    312 <multiboot_header-0xffd6e>
 29f:	72 2f                	jb     2d0 <multiboot_header-0xffdb0>
 2a1:	6c                   	insb   (%dx),%es:(%edi)
 2a2:	69 62 2f 67 63 63 2f 	imul   $0x2f636367,0x2f(%edx),%esp
 2a9:	69 36 38 36 2d 6c    	imul   $0x6c2d3638,(%esi),%esi
 2af:	69 6e 75 78 2d 67 6e 	imul   $0x6e672d78,0x75(%esi),%ebp
 2b6:	75 2f                	jne    2e7 <multiboot_header-0xffd99>
 2b8:	35 2f 69 6e 63       	xor    $0x636e692f,%eax
 2bd:	6c                   	insb   (%dx),%es:(%edi)
 2be:	75 64                	jne    324 <multiboot_header-0xffd5c>
 2c0:	65 00 69 6e          	add    %ch,%gs:0x6e(%ecx)
 2c4:	63 6c 75 64          	arpl   %bp,0x64(%ebp,%esi,2)
 2c8:	65 00 00             	add    %al,%gs:(%eax)
 2cb:	77 72                	ja     33f <multiboot_header-0xffd41>
 2cd:	69 74 65 2e 63 00 00 	imul   $0x63,0x2e(%ebp,%eiz,2),%esi
 2d4:	00 
 2d5:	00 73 74             	add    %dh,0x74(%ebx)
 2d8:	64 64 65 66 2e 68 00 	fs fs gs cs pushw $0x100
 2df:	01 
 2e0:	00 00                	add    %al,(%eax)
 2e2:	69 6f 2e 68 00 02 00 	imul   $0x20068,0x2e(%edi),%ebp
 2e9:	00 00                	add    %al,(%eax)
 2eb:	00 05 02 f8 03 10    	add    %al,0x1003f802
 2f1:	00 16                	add    %dl,(%esi)
 2f3:	91                   	xchg   %eax,%ecx
 2f4:	bb 7b 03 79 66       	mov    $0x6679037b,%ebx
 2f9:	59                   	pop    %ecx
 2fa:	73 35                	jae    331 <multiboot_header-0xffd4f>
 2fc:	03 7a 3c             	add    0x3c(%edx),%edi
 2ff:	03 11                	add    (%ecx),%edx
 301:	74 03                	je     306 <multiboot_header-0xffd7a>
 303:	75 3c                	jne    341 <multiboot_header-0xffd3f>
 305:	03 0b                	add    (%ebx),%ecx
 307:	82                   	(bad)  
 308:	03 75 3c             	add    0x3c(%ebp),%esi
 30b:	5a                   	pop    %edx
 30c:	d7                   	xlat   %ds:(%ebx)
 30d:	de cc                	fmulp  %st,%st(4)
 30f:	08 4c af 90          	or     %cl,-0x70(%edi,%ebp,4)
 313:	00 02                	add    %al,(%edx)
 315:	04 01                	add    $0x1,%al
 317:	91                   	xchg   %eax,%ecx
 318:	00 02                	add    %al,(%edx)
 31a:	04 03                	add    $0x3,%al
 31c:	4b                   	dec    %ebx
 31d:	08 69 02             	or     %ch,0x2(%ecx)
 320:	0a 00                	or     (%eax),%al
 322:	01 01                	add    %eax,(%ecx)
 324:	d0 00                	rolb   (%eax)
 326:	00 00                	add    %al,(%eax)
 328:	02 00                	add    (%eax),%al
 32a:	63 00                	arpl   %ax,(%eax)
 32c:	00 00                	add    %al,(%eax)
 32e:	01 01                	add    %eax,(%ecx)
 330:	fb                   	sti    
 331:	0e                   	push   %cs
 332:	0d 00 01 01 01       	or     $0x1010100,%eax
 337:	01 00                	add    %eax,(%eax)
 339:	00 00                	add    %al,(%eax)
 33b:	01 00                	add    %eax,(%eax)
 33d:	00 01                	add    %al,(%ecx)
 33f:	69 6e 63 6c 75 64 65 	imul   $0x6564756c,0x63(%esi),%ebp
 346:	2f                   	das    
 347:	6b 00 69             	imul   $0x69,(%eax),%eax
 34a:	6e                   	outsb  %ds:(%esi),(%dx)
 34b:	63 6c 75 64          	arpl   %bp,0x64(%ebp,%esi,2)
 34f:	65 00 2e             	add    %ch,%gs:(%esi)
 352:	2e 2f                	cs das 
 354:	6c                   	insb   (%dx),%es:(%edi)
 355:	69 62 73 2f 6c 69 62 	imul   $0x62696c2f,0x73(%edx),%esp
 35c:	63 2f                	arpl   %bp,(%edi)
 35e:	69 6e 63 6c 75 64 65 	imul   $0x6564756c,0x63(%esi),%ebp
 365:	00 00                	add    %al,(%eax)
 367:	69 64 74 2e 63 00 00 	imul   $0x63,0x2e(%esp,%esi,2),%esp
 36e:	00 
 36f:	00 74 79 70          	add    %dh,0x70(%ecx,%edi,2)
 373:	65 73 2e             	gs jae 3a4 <multiboot_header-0xffcdc>
 376:	68 00 01 00 00       	push   $0x100
 37b:	69 64 74 2e 68 00 02 	imul   $0x20068,0x2e(%esp,%esi,2),%esp
 382:	00 
 383:	00 73 74             	add    %dh,0x74(%ebx)
 386:	72 69                	jb     3f1 <multiboot_header-0xffc8f>
 388:	6e                   	outsb  %ds:(%esi),(%dx)
 389:	67 2e 68 00 03 00 00 	addr16 cs push $0x300
 390:	00 00                	add    %al,(%eax)
 392:	05 02 ff 05 10       	add    $0x1005ff02,%eax
 397:	00 1a                	add    %bl,(%edx)
 399:	3d 49 3d 83 3f       	cmp    $0x3f833d49,%eax
 39e:	7f 84                	jg     324 <multiboot_header-0xffd5c>
 3a0:	af                   	scas   %es:(%edi),%eax
 3a1:	3d 1f 75 03 0d       	cmp    $0xd03751f,%eax
 3a6:	20 3d 08 2f 08 2f    	and    %bh,0x2f082f08
 3ac:	08 59 08             	or     %bl,0x8(%ecx)
 3af:	2f                   	das    
 3b0:	08 59 08             	or     %bl,0x8(%ecx)
 3b3:	2f                   	das    
 3b4:	08 59 08             	or     %bl,0x8(%ecx)
 3b7:	2f                   	das    
 3b8:	08 59 08             	or     %bl,0x8(%ecx)
 3bb:	2f                   	das    
 3bc:	08 59 08             	or     %bl,0x8(%ecx)
 3bf:	2f                   	das    
 3c0:	08 59 08             	or     %bl,0x8(%ecx)
 3c3:	2f                   	das    
 3c4:	08 59 08             	or     %bl,0x8(%ecx)
 3c7:	2f                   	das    
 3c8:	08 59 08             	or     %bl,0x8(%ecx)
 3cb:	2f                   	das    
 3cc:	08 59 08             	or     %bl,0x8(%ecx)
 3cf:	2f                   	das    
 3d0:	08 59 08             	or     %bl,0x8(%ecx)
 3d3:	2f                   	das    
 3d4:	08 59 08             	or     %bl,0x8(%ecx)
 3d7:	2f                   	das    
 3d8:	08 59 08             	or     %bl,0x8(%ecx)
 3db:	2f                   	das    
 3dc:	08 59 08             	or     %bl,0x8(%ecx)
 3df:	2f                   	das    
 3e0:	08 59 08             	or     %bl,0x8(%ecx)
 3e3:	2f                   	das    
 3e4:	08 59 08             	or     %bl,0x8(%ecx)
 3e7:	30 78 03             	xor    %bh,0x3(%eax)
 3ea:	50                   	push   %eax
 3eb:	58                   	pop    %eax
 3ec:	67 93                	addr16 xchg %eax,%ebx
 3ee:	b8 a0 5a 3d 1f       	mov    $0x1f3d5aa0,%eax
 3f3:	02 05 00 01 01 6e    	add    0x6e010100,%al
 3f9:	00 00                	add    %al,(%eax)
 3fb:	00 02                	add    %al,(%edx)
 3fd:	00 4f 00             	add    %cl,0x0(%edi)
 400:	00 00                	add    %al,(%eax)
 402:	01 01                	add    %eax,(%ecx)
 404:	fb                   	sti    
 405:	0e                   	push   %cs
 406:	0d 00 01 01 01       	or     $0x1010100,%eax
 40b:	01 00                	add    %eax,(%eax)
 40d:	00 00                	add    %al,(%eax)
 40f:	01 00                	add    %eax,(%eax)
 411:	00 01                	add    %al,(%ecx)
 413:	69 6e 63 6c 75 64 65 	imul   $0x6564756c,0x63(%esi),%ebp
 41a:	00 69 6e             	add    %ch,0x6e(%ecx)
 41d:	63 6c 75 64          	arpl   %bp,0x64(%ebp,%esi,2)
 421:	65 2f                	gs das 
 423:	6b 00 00             	imul   $0x0,(%eax),%eax
 426:	69 73 72 2e 63 00 00 	imul   $0x632e,0x72(%ebx),%esi
 42d:	00 00                	add    %al,(%eax)
 42f:	69 73 72 2e 68 00 01 	imul   $0x100682e,0x72(%ebx),%esi
 436:	00 00                	add    %al,(%eax)
 438:	6d                   	insl   (%dx),%es:(%edi)
 439:	6f                   	outsl  %ds:(%esi),(%dx)
 43a:	6e                   	outsb  %ds:(%esi),(%dx)
 43b:	69 74 6f 72 2e 68 00 	imul   $0x100682e,0x72(%edi,%ebp,2),%esi
 442:	01 
 443:	00 00                	add    %al,(%eax)
 445:	74 79                	je     4c0 <multiboot_header-0xffbc0>
 447:	70 65                	jo     4ae <multiboot_header-0xffbd2>
 449:	73 2e                	jae    479 <multiboot_header-0xffc07>
 44b:	68 00 02 00 00       	push   $0x200
 450:	00 00                	add    %al,(%eax)
 452:	05 02 0a 09 10       	add    $0x10090a02,%eax
 457:	00 03                	add    %al,(%ebx)
 459:	29 01                	sub    %eax,(%ecx)
 45b:	74 3d                	je     49a <multiboot_header-0xffbe6>
 45d:	a0 ae e5 a3 45       	mov    0x45a3e5ae,%al
 462:	5b                   	pop    %ebx
 463:	76 48                	jbe    4ad <multiboot_header-0xffbd3>
 465:	02 05 00 01 01 c4    	add    0xc4010100,%al
 46b:	00 00                	add    %al,(%eax)
 46d:	00 02                	add    %al,(%edx)
 46f:	00 64 00 00          	add    %ah,0x0(%eax,%eax,1)
 473:	00 01                	add    %al,(%ecx)
 475:	01 fb                	add    %edi,%ebx
 477:	0e                   	push   %cs
 478:	0d 00 01 01 01       	or     $0x1010100,%eax
 47d:	01 00                	add    %eax,(%eax)
 47f:	00 00                	add    %al,(%eax)
 481:	01 00                	add    %eax,(%eax)
 483:	00 01                	add    %al,(%ecx)
 485:	69 6e 63 6c 75 64 65 	imul   $0x6564756c,0x63(%esi),%ebp
 48c:	00 69 6e             	add    %ch,0x6e(%ecx)
 48f:	63 6c 75 64          	arpl   %bp,0x64(%ebp,%esi,2)
 493:	65 2f                	gs das 
 495:	6b 00 00             	imul   $0x0,(%eax),%eax
 498:	69 72 71 2e 63 00 00 	imul   $0x632e,0x71(%edx),%esi
 49f:	00 00                	add    %al,(%eax)
 4a1:	69 73 72 2e 68 00 01 	imul   $0x100682e,0x72(%ebx),%esi
 4a8:	00 00                	add    %al,(%eax)
 4aa:	63 6f 6d             	arpl   %bp,0x6d(%edi)
 4ad:	6d                   	insl   (%dx),%es:(%edi)
 4ae:	6f                   	outsl  %ds:(%esi),(%dx)
 4af:	6e                   	outsb  %ds:(%esi),(%dx)
 4b0:	2e 68 00 01 00 00    	cs push $0x100
 4b6:	69 64 74 2e 68 00 01 	imul   $0x10068,0x2e(%esp,%esi,2),%esp
 4bd:	00 
 4be:	00 6d 6f             	add    %ch,0x6f(%ebp)
 4c1:	6e                   	outsb  %ds:(%esi),(%dx)
 4c2:	69 74 6f 72 2e 68 00 	imul   $0x100682e,0x72(%edi,%ebp,2),%esi
 4c9:	01 
 4ca:	00 00                	add    %al,(%eax)
 4cc:	74 79                	je     547 <multiboot_header-0xffb39>
 4ce:	70 65                	jo     535 <multiboot_header-0xffb4b>
 4d0:	73 2e                	jae    500 <multiboot_header-0xffb80>
 4d2:	68 00 02 00 00       	push   $0x200
 4d7:	00 00                	add    %al,(%eax)
 4d9:	05 02 5b 09 10       	add    $0x10095b02,%eax
 4de:	00 03                	add    %al,(%ebx)
 4e0:	0b 01                	or     (%ecx),%eax
 4e2:	3d 67 1f 75 24       	cmp    $0x24751f67,%eax
 4e7:	3d 3d 1f ad 03       	cmp    $0x3ad1f3d,%eax
 4ec:	0b 20                	or     (%eax),%esp
 4ee:	67 91                	addr16 xchg %eax,%ecx
 4f0:	d7                   	xlat   %ds:(%ebx)
 4f1:	ad                   	lods   %ds:(%esi),%eax
 4f2:	d7                   	xlat   %ds:(%ebx)
 4f3:	ad                   	lods   %ds:(%esi),%eax
 4f4:	d7                   	xlat   %ds:(%ebx)
 4f5:	ad                   	lods   %ds:(%esi),%eax
 4f6:	d7                   	xlat   %ds:(%ebx)
 4f7:	ad                   	lods   %ds:(%esi),%eax
 4f8:	d7                   	xlat   %ds:(%ebx)
 4f9:	5e                   	pop    %esi
 4fa:	67 5a                	addr16 pop %edx
 4fc:	08 2f                	or     %ch,(%edi)
 4fe:	08 2f                	or     %ch,(%edi)
 500:	08 59 08             	or     %bl,0x8(%ecx)
 503:	2f                   	das    
 504:	08 59 08             	or     %bl,0x8(%ecx)
 507:	2f                   	das    
 508:	08 59 08             	or     %bl,0x8(%ecx)
 50b:	2f                   	das    
 50c:	08 59 08             	or     %bl,0x8(%ecx)
 50f:	2f                   	das    
 510:	08 59 08             	or     %bl,0x8(%ecx)
 513:	2f                   	das    
 514:	08 59 08             	or     %bl,0x8(%ecx)
 517:	2f                   	das    
 518:	08 59 08             	or     %bl,0x8(%ecx)
 51b:	2f                   	das    
 51c:	03 0d 58 58 42 9f    	add    0x9f425858,%ecx
 522:	4c                   	dec    %esp
 523:	c9                   	leave  
 524:	4e                   	dec    %esi
 525:	cc                   	int3   
 526:	46                   	inc    %esi
 527:	40                   	inc    %eax
 528:	94                   	xchg   %eax,%esp
 529:	92                   	xchg   %eax,%edx
 52a:	d7                   	xlat   %ds:(%ebx)
 52b:	e9 ad 02 0a 00       	jmp    a07dd <multiboot_header-0x5f8a3>
 530:	01 01                	add    %eax,(%ecx)
 532:	48                   	dec    %eax
 533:	00 00                	add    %al,(%eax)
 535:	00 02                	add    %al,(%edx)
 537:	00 30                	add    %dh,(%eax)
 539:	00 00                	add    %al,(%eax)
 53b:	00 01                	add    %al,(%ecx)
 53d:	01 fb                	add    %edi,%ebx
 53f:	0e                   	push   %cs
 540:	0d 00 01 01 01       	or     $0x1010100,%eax
 545:	01 00                	add    %eax,(%eax)
 547:	00 00                	add    %al,(%eax)
 549:	01 00                	add    %eax,(%eax)
 54b:	00 01                	add    %al,(%ecx)
 54d:	69 6e 63 6c 75 64 65 	imul   $0x6564756c,0x63(%esi),%ebp
 554:	2f                   	das    
 555:	6b 00 00             	imul   $0x0,(%eax),%eax
 558:	69 6f 2e 63 00 00 00 	imul   $0x63,0x2e(%edi),%ebp
 55f:	00 74 79 70          	add    %dh,0x70(%ecx,%edi,2)
 563:	65 73 2e             	gs jae 594 <multiboot_header-0xffaec>
 566:	68 00 01 00 00       	push   $0x100
 56b:	00 00                	add    %al,(%eax)
 56d:	05 02 79 0c 10       	add    $0x100c7902,%eax
 572:	00 15 40 77 31 41    	add    %dl,0x41317740
 578:	4e                   	dec    %esi
 579:	02 02                	add    (%edx),%al
 57b:	00 01                	add    %al,(%ecx)
 57d:	01 7f 00             	add    %edi,0x0(%edi)
 580:	00 00                	add    %al,(%eax)
 582:	02 00                	add    (%eax),%al
 584:	46                   	inc    %esi
 585:	00 00                	add    %al,(%eax)
 587:	00 01                	add    %al,(%ecx)
 589:	01 fb                	add    %edi,%ebx
 58b:	0e                   	push   %cs
 58c:	0d 00 01 01 01       	or     $0x1010100,%eax
 591:	01 00                	add    %eax,(%eax)
 593:	00 00                	add    %al,(%eax)
 595:	01 00                	add    %eax,(%eax)
 597:	00 01                	add    %al,(%ecx)
 599:	69 6e 63 6c 75 64 65 	imul   $0x6564756c,0x63(%esi),%ebp
 5a0:	00 00                	add    %al,(%eax)
 5a2:	70 69                	jo     60d <multiboot_header-0xffa73>
 5a4:	74 2e                	je     5d4 <multiboot_header-0xffaac>
 5a6:	63 00                	arpl   %ax,(%eax)
 5a8:	00 00                	add    %al,(%eax)
 5aa:	00 6d 6f             	add    %ch,0x6f(%ebp)
 5ad:	6e                   	outsb  %ds:(%esi),(%dx)
 5ae:	69 74 6f 72 2e 68 00 	imul   $0x100682e,0x72(%edi,%ebp,2),%esi
 5b5:	01 
 5b6:	00 00                	add    %al,(%eax)
 5b8:	63 6f 6d             	arpl   %bp,0x6d(%edi)
 5bb:	6d                   	insl   (%dx),%es:(%edi)
 5bc:	6f                   	outsl  %ds:(%esi),(%dx)
 5bd:	6e                   	outsb  %ds:(%esi),(%dx)
 5be:	2e 68 00 01 00 00    	cs push $0x100
 5c4:	69 72 71 2e 68 00 01 	imul   $0x100682e,0x71(%edx),%esi
 5cb:	00 00                	add    %al,(%eax)
 5cd:	00 00                	add    %al,(%eax)
 5cf:	05 02 8e 0c 10       	add    $0x100c8e02,%eax
 5d4:	00 03                	add    %al,(%ebx)
 5d6:	0f 01 13             	lgdtl  (%ebx)
 5d9:	5a                   	pop    %edx
 5da:	72 68                	jb     644 <multiboot_header-0xffa3c>
 5dc:	63 6b ca             	arpl   %bp,-0x36(%ebx)
 5df:	03 6e 2e             	add    0x2e(%esi),%ebp
 5e2:	21 65 67             	and    %esp,0x67(%ebp)
 5e5:	3d 49 2f 59 59       	cmp    $0x59592f49,%eax
 5ea:	3b 83 9f 03 10 82    	cmp    -0x7deffc61(%ebx),%eax
 5f0:	67 bb 5b 23 55 31    	addr16 mov $0x3155235b,%ebx
 5f6:	00 02                	add    %al,(%edx)
 5f8:	04 01                	add    $0x1,%al
 5fa:	59                   	pop    %ecx
 5fb:	4b                   	dec    %ebx
 5fc:	02 02                	add    (%edx),%al
 5fe:	00 01                	add    %al,(%ecx)
 600:	01 6b 00             	add    %ebp,0x0(%ebx)
 603:	00 00                	add    %al,(%eax)
 605:	02 00                	add    (%eax),%al
 607:	4b                   	dec    %ebx
 608:	00 00                	add    %al,(%eax)
 60a:	00 01                	add    %al,(%ecx)
 60c:	01 fb                	add    %edi,%ebx
 60e:	0e                   	push   %cs
 60f:	0d 00 01 01 01       	or     $0x1010100,%eax
 614:	01 00                	add    %eax,(%eax)
 616:	00 00                	add    %al,(%eax)
 618:	01 00                	add    %eax,(%eax)
 61a:	00 01                	add    %al,(%ecx)
 61c:	69 6e 63 6c 75 64 65 	imul   $0x6564756c,0x63(%esi),%ebp
 623:	00 00                	add    %al,(%eax)
 625:	6b 65 79 62          	imul   $0x62,0x79(%ebp),%esp
 629:	6f                   	outsl  %ds:(%esi),(%dx)
 62a:	61                   	popa   
 62b:	72 64                	jb     691 <multiboot_header-0xff9ef>
 62d:	2e 63 00             	arpl   %ax,%cs:(%eax)
 630:	00 00                	add    %al,(%eax)
 632:	00 6d 6f             	add    %ch,0x6f(%ebp)
 635:	6e                   	outsb  %ds:(%esi),(%dx)
 636:	69 74 6f 72 2e 68 00 	imul   $0x100682e,0x72(%edi,%ebp,2),%esi
 63d:	01 
 63e:	00 00                	add    %al,(%eax)
 640:	69 72 71 2e 68 00 01 	imul   $0x100682e,0x71(%edx),%esi
 647:	00 00                	add    %al,(%eax)
 649:	63 6f 6d             	arpl   %bp,0x6d(%edi)
 64c:	6d                   	insl   (%dx),%es:(%edi)
 64d:	6f                   	outsl  %ds:(%esi),(%dx)
 64e:	6e                   	outsb  %ds:(%esi),(%dx)
 64f:	2e 68 00 01 00 00    	cs push $0x100
 655:	00 00                	add    %al,(%eax)
 657:	05 02 22 0d 10       	add    $0x100d2202,%eax
 65c:	00 03                	add    %al,(%ebx)
 65e:	33 01                	xor    (%ecx),%eax
 660:	75 a0                	jne    602 <multiboot_header-0xffa7e>
 662:	76 a2                	jbe    606 <multiboot_header-0xffa7a>
 664:	3d 65 a0 ae 5b       	cmp    $0x5baea065,%eax
 669:	67 bb 02 05 00 01    	addr16 mov $0x1000502,%ebx
 66f:	01 d5                	add    %edx,%ebp
 671:	00 00                	add    %al,(%eax)
 673:	00 02                	add    %al,(%edx)
 675:	00 3c 00             	add    %bh,(%eax,%eax,1)
 678:	00 00                	add    %al,(%eax)
 67a:	01 01                	add    %eax,(%ecx)
 67c:	fb                   	sti    
 67d:	0e                   	push   %cs
 67e:	0d 00 01 01 01       	or     $0x1010100,%eax
 683:	01 00                	add    %eax,(%eax)
 685:	00 00                	add    %al,(%eax)
 687:	01 00                	add    %eax,(%eax)
 689:	00 01                	add    %al,(%ecx)
 68b:	69 6e 63 6c 75 64 65 	imul   $0x6564756c,0x63(%esi),%ebp
 692:	00 00                	add    %al,(%eax)
 694:	6d                   	insl   (%dx),%es:(%edi)
 695:	6f                   	outsl  %ds:(%esi),(%dx)
 696:	6e                   	outsb  %ds:(%esi),(%dx)
 697:	69 74 6f 72 2e 63 00 	imul   $0x632e,0x72(%edi,%ebp,2),%esi
 69e:	00 
 69f:	00 00                	add    %al,(%eax)
 6a1:	63 6f 6d             	arpl   %bp,0x6d(%edi)
 6a4:	6d                   	insl   (%dx),%es:(%edi)
 6a5:	6f                   	outsl  %ds:(%esi),(%dx)
 6a6:	6e                   	outsb  %ds:(%esi),(%dx)
 6a7:	2e 68 00 01 00 00    	cs push $0x100
 6ad:	69 6f 2e 68 00 01 00 	imul   $0x10068,0x2e(%edi),%ebp
 6b4:	00 00                	add    %al,(%eax)
 6b6:	00 05 02 7e 0d 10    	add    %al,0x100d7e02
 6bc:	00 03                	add    %al,(%ebx)
 6be:	0e                   	push   %cs
 6bf:	01 76 d7             	add    %esi,-0x29(%esi)
 6c2:	73 83                	jae    647 <multiboot_header-0xffa39>
 6c4:	59                   	pop    %ecx
 6c5:	5a                   	pop    %edx
 6c6:	3a ad d7 c9 03 22    	cmp    0x2203c9d7(%ebp),%ch
 6cc:	82                   	(bad)  
 6cd:	4a                   	dec    %edx
 6ce:	03 0e                	add    (%esi),%ecx
 6d0:	3c 00                	cmp    $0x0,%al
 6d2:	02 04 01             	add    (%ecx,%eax,1),%al
 6d5:	06                   	push   %es
 6d6:	4a                   	dec    %edx
 6d7:	06                   	push   %es
 6d8:	92                   	xchg   %eax,%edx
 6d9:	41                   	inc    %ecx
 6da:	4c                   	dec    %esp
 6db:	08 24 4c             	or     %ah,(%esp,%ecx,2)
 6de:	94                   	xchg   %eax,%esp
 6df:	4c                   	dec    %esp
 6e0:	75 85                	jne    667 <multiboot_header-0xffa19>
 6e2:	4d                   	dec    %ebp
 6e3:	73 75                	jae    75a <multiboot_header-0xff926>
 6e5:	81 30 1f bb 6b 93    	xorl   $0x936bbb1f,(%eax)
 6eb:	65 03 b7 7f 74 97 08 	add    %gs:0x897747f(%edi),%esi
 6f2:	3a 03                	cmp    (%ebx),%al
 6f4:	09 82 64 87 03 c1    	or     %eax,-0x3efc789c(%edx)
 6fa:	00 74 2c 5e          	add    %dh,0x5e(%esp,%ebp,1)
 6fe:	28 64 03 7a          	sub    %ah,0x7a(%ebx,%eax,1)
 702:	2e 00 02             	add    %al,%cs:(%edx)
 705:	04 03                	add    $0x3,%al
 707:	36 00 02             	add    %al,%ss:(%edx)
 70a:	04 03                	add    $0x3,%al
 70c:	64 03 09             	add    %fs:(%ecx),%ecx
 70f:	82                   	(bad)  
 710:	1d 75 75 5d 92       	sbb    $0x925d7575,%eax
 715:	84 d8                	test   %bl,%al
 717:	5b                   	pop    %ebx
 718:	60                   	pusha  
 719:	03 78 58             	add    0x58(%eax),%edi
 71c:	3f                   	aas    
 71d:	f4                   	hlt    
 71e:	33 67 f7             	xor    -0x9(%edi),%esp
 721:	5b                   	pop    %ebx
 722:	b1 e3                	mov    $0xe3,%cl
 724:	00 02                	add    %al,(%edx)
 726:	04 02                	add    $0x2,%al
 728:	03 71 2e             	add    0x2e(%ecx),%esi
 72b:	03 14 58             	add    (%eax,%ebx,2),%edx
 72e:	59                   	pop    %ecx
 72f:	5a                   	pop    %edx
 730:	86 69 63             	xchg   %ch,0x63(%ecx)
 733:	5e                   	pop    %esi
 734:	90                   	nop
 735:	3e 4c                	ds dec %esp
 737:	c0                   	(bad)  
 738:	31 56 4c             	xor    %edx,0x4c(%esi)
 73b:	a0 68 5b 59 31       	mov    0x31595b68,%al
 740:	3a 4c d8 bc          	cmp    -0x44(%eax,%ebx,8),%cl
 744:	02 08                	add    (%eax),%cl
 746:	00 01                	add    %al,(%ecx)
 748:	01 77 00             	add    %esi,0x0(%edi)
 74b:	00 00                	add    %al,(%eax)
 74d:	02 00                	add    (%eax),%al
 74f:	51                   	push   %ecx
 750:	00 00                	add    %al,(%eax)
 752:	00 01                	add    %al,(%ecx)
 754:	01 fb                	add    %edi,%ebx
 756:	0e                   	push   %cs
 757:	0d 00 01 01 01       	or     $0x1010100,%eax
 75c:	01 00                	add    %eax,(%eax)
 75e:	00 00                	add    %al,(%eax)
 760:	01 00                	add    %eax,(%eax)
 762:	00 01                	add    %al,(%ecx)
 764:	2f                   	das    
 765:	75 73                	jne    7da <multiboot_header-0xff8a6>
 767:	72 2f                	jb     798 <multiboot_header-0xff8e8>
 769:	6c                   	insb   (%dx),%es:(%edi)
 76a:	69 62 2f 67 63 63 2f 	imul   $0x2f636367,0x2f(%edx),%esp
 771:	69 36 38 36 2d 6c    	imul   $0x6c2d3638,(%esi),%esi
 777:	69 6e 75 78 2d 67 6e 	imul   $0x6e672d78,0x75(%esi),%ebp
 77e:	75 2f                	jne    7af <multiboot_header-0xff8d1>
 780:	35 2f 69 6e 63       	xor    $0x636e692f,%eax
 785:	6c                   	insb   (%dx),%es:(%edi)
 786:	75 64                	jne    7ec <multiboot_header-0xff894>
 788:	65 00 00             	add    %al,%gs:(%eax)
 78b:	6d                   	insl   (%dx),%es:(%edi)
 78c:	65 6d                	gs insl (%dx),%es:(%edi)
 78e:	73 65                	jae    7f5 <multiboot_header-0xff88b>
 790:	74 2e                	je     7c0 <multiboot_header-0xff8c0>
 792:	63 00                	arpl   %ax,(%eax)
 794:	00 00                	add    %al,(%eax)
 796:	00 73 74             	add    %dh,0x74(%ebx)
 799:	64 64 65 66 2e 68 00 	fs fs gs cs pushw $0x100
 7a0:	01 
 7a1:	00 00                	add    %al,(%eax)
 7a3:	00 00                	add    %al,(%eax)
 7a5:	05 02 eb 0f 10       	add    $0x100feb02,%eax
 7aa:	00 15 23 2b 2e 00    	add    %dl,0x2e2b23
 7b0:	02 04 01             	add    (%ecx,%eax,1),%al
 7b3:	69 00 02 04 03 59    	imul   $0x59030402,(%eax),%eax
 7b9:	00 02                	add    %al,(%edx)
 7bb:	04 03                	add    $0x3,%al
 7bd:	3b 40 02             	cmp    0x2(%eax),%eax
 7c0:	02 00                	add    (%eax),%al
 7c2:	01 01                	add    %eax,(%ecx)

Disassembly of section .debug_str:

00000000 <.debug_str>:
   0:	70 72                	jo     74 <multiboot_header-0x10000c>
   2:	65 70 61             	gs jo  66 <multiboot_header-0x10001a>
   5:	72 65                	jb     6c <multiboot_header-0x100014>
   7:	00 2f                	add    %ch,(%edi)
   9:	68 6f 6d 65 2f       	push   $0x2f656d6f
   e:	6e                   	outsb  %ds:(%esi),(%dx)
   f:	69 63 6f 2f 44 6f 63 	imul   $0x636f442f,0x6f(%ebx),%esp
  16:	75 6d                	jne    85 <multiboot_header-0xffffb>
  18:	65 6e                	outsb  %gs:(%esi),(%dx)
  1a:	74 73                	je     8f <multiboot_header-0xffff1>
  1c:	2f                   	das    
  1d:	4b                   	dec    %ebx
  1e:	2f                   	das    
  1f:	6b 00 69             	imul   $0x69,(%eax),%eax
  22:	6e                   	outsb  %ds:(%esi),(%dx)
  23:	69 74 5f 69 64 74 00 	imul   $0x69007464,0x69(%edi,%ebx,2),%esi
  2a:	69 
  2b:	72 71                	jb     9e <multiboot_header-0xfffe2>
  2d:	5f                   	pop    %edi
  2e:	69 6e 73 74 61 6c 6c 	imul   $0x6c6c6174,0x73(%esi),%ebp
  35:	00 6b 5f             	add    %ch,0x5f(%ebx)
  38:	6d                   	insl   (%dx),%es:(%edi)
  39:	61                   	popa   
  3a:	69 6e 00 72 65 73 65 	imul   $0x65736572,0x0(%esi),%ebp
  41:	72 76                	jb     b9 <multiboot_header-0xfffc7>
  43:	65 64 00 73 68       	gs add %dh,%fs:0x68(%ebx)
  48:	6f                   	outsl  %ds:(%esi),(%dx)
  49:	72 74                	jb     bf <multiboot_header-0xfffc1>
  4b:	20 75 6e             	and    %dh,0x6e(%ebp)
  4e:	73 69                	jae    b9 <multiboot_header-0xfffc7>
  50:	67 6e                	outsb  %ds:(%si),(%dx)
  52:	65 64 20 69 6e       	gs and %ch,%fs:0x6e(%ecx)
  57:	74 00                	je     59 <multiboot_header-0x100027>
  59:	61                   	popa   
  5a:	6f                   	outsl  %ds:(%esi),(%dx)
  5b:	75 74                	jne    d1 <multiboot_header-0xfffaf>
  5d:	5f                   	pop    %edi
  5e:	73 79                	jae    d9 <multiboot_header-0xfffa7>
  60:	6d                   	insl   (%dx),%es:(%edi)
  61:	62 6f 6c             	bound  %ebp,0x6c(%edi)
  64:	5f                   	pop    %edi
  65:	74 61                	je     c8 <multiboot_header-0xfffb8>
  67:	62 6c 65 5f          	bound  %ebp,0x5f(%ebp,%eiz,2)
  6b:	74 00                	je     6d <multiboot_header-0x100013>
  6d:	6d                   	insl   (%dx),%es:(%edi)
  6e:	6d                   	insl   (%dx),%es:(%edi)
  6f:	61                   	popa   
  70:	70 5f                	jo     d1 <multiboot_header-0xfffaf>
  72:	6c                   	insb   (%dx),%es:(%edi)
  73:	65 6e                	outsb  %gs:(%esi),(%dx)
  75:	67 74 68             	addr16 je e0 <multiboot_header-0xfffa0>
  78:	00 61 6f             	add    %ah,0x6f(%ecx)
  7b:	75 74                	jne    f1 <multiboot_header-0xfff8f>
  7d:	5f                   	pop    %edi
  7e:	73 79                	jae    f9 <multiboot_header-0xfff87>
  80:	6d                   	insl   (%dx),%es:(%edi)
  81:	00 6b 65             	add    %ch,0x65(%ebx)
  84:	79 62                	jns    e8 <multiboot_header-0xfff98>
  86:	6f                   	outsl  %ds:(%esi),(%dx)
  87:	61                   	popa   
  88:	72 64                	jb     ee <multiboot_header-0xfff92>
  8a:	5f                   	pop    %edi
  8b:	69 6e 73 74 61 6c 6c 	imul   $0x6c6c6174,0x73(%esi),%ebp
  92:	00 6d 75             	add    %ch,0x75(%ebp)
  95:	6c                   	insb   (%dx),%es:(%edi)
  96:	74 69                	je     101 <multiboot_header-0xfff7f>
  98:	62 6f 6f             	bound  %ebp,0x6f(%edi)
  9b:	74 5f                	je     fc <multiboot_header-0xfff84>
  9d:	69 6e 66 6f 5f 74 00 	imul   $0x745f6f,0x66(%esi),%ebp
  a4:	6d                   	insl   (%dx),%es:(%edi)
  a5:	6f                   	outsl  %ds:(%esi),(%dx)
  a6:	64 73 5f             	fs jae 108 <multiboot_header-0xfff78>
  a9:	61                   	popa   
  aa:	64 64 72 00          	fs fs jb ae <multiboot_header-0xfffd2>
  ae:	65 6c                	gs insb (%dx),%es:(%edi)
  b0:	66 5f                	pop    %di
  b2:	73 65                	jae    119 <multiboot_header-0xfff67>
  b4:	63 00                	arpl   %ax,(%eax)
  b6:	65 6c                	gs insb (%dx),%es:(%edi)
  b8:	66 5f                	pop    %di
  ba:	73 65                	jae    121 <multiboot_header-0xfff5f>
  bc:	63 74 69 6f          	arpl   %si,0x6f(%ecx,%ebp,2)
  c0:	6e                   	outsb  %ds:(%esi),(%dx)
  c1:	5f                   	pop    %edi
  c2:	68 65 61 64 65       	push   $0x65646165
  c7:	72 5f                	jb     128 <multiboot_header-0xfff58>
  c9:	74 61                	je     12c <multiboot_header-0xfff54>
  cb:	62 6c 65 5f          	bound  %ebp,0x5f(%ebp,%eiz,2)
  cf:	74 00                	je     d1 <multiboot_header-0xfffaf>
  d1:	69 6e 69 74 5f 67 64 	imul   $0x64675f74,0x69(%esi),%ebp
  d8:	74 00                	je     da <multiboot_header-0xfffa6>
  da:	6d                   	insl   (%dx),%es:(%edi)
  db:	6d                   	insl   (%dx),%es:(%edi)
  dc:	61                   	popa   
  dd:	70 5f                	jo     13e <multiboot_header-0xfff42>
  df:	61                   	popa   
  e0:	64 64 72 00          	fs fs jb e4 <multiboot_header-0xfff9c>
  e4:	75 6e                	jne    154 <multiboot_header-0xfff2c>
  e6:	73 69                	jae    151 <multiboot_header-0xfff2f>
  e8:	67 6e                	outsb  %ds:(%si),(%dx)
  ea:	65 64 20 63 68       	gs and %ah,%fs:0x68(%ebx)
  ef:	61                   	popa   
  f0:	72 00                	jb     f2 <multiboot_header-0xfff8e>
  f2:	69 6e 66 6f 00 74 69 	imul   $0x6974006f,0x66(%esi),%ebp
  f9:	6d                   	insl   (%dx),%es:(%edi)
  fa:	65 72 5f             	gs jb  15c <multiboot_header-0xfff24>
  fd:	69 6e 73 74 61 6c 6c 	imul   $0x6c6c6174,0x73(%esi),%ebp
 104:	00 6c 6f 6e          	add    %ch,0x6e(%edi,%ebp,2)
 108:	67 20 6c 6f          	and    %ch,0x6f(%si)
 10c:	6e                   	outsb  %ds:(%esi),(%dx)
 10d:	67 20 75 6e          	and    %dh,0x6e(%di)
 111:	73 69                	jae    17c <multiboot_header-0xfff04>
 113:	67 6e                	outsb  %ds:(%si),(%dx)
 115:	65 64 20 69 6e       	gs and %ch,%fs:0x6e(%ecx)
 11a:	74 00                	je     11c <multiboot_header-0xfff64>
 11c:	47                   	inc    %edi
 11d:	4e                   	dec    %esi
 11e:	55                   	push   %ebp
 11f:	20 43 39             	and    %al,0x39(%ebx)
 122:	39 20                	cmp    %esp,(%eax)
 124:	35 2e 34 2e 30       	xor    $0x302e342e,%eax
 129:	20 32                	and    %dh,(%edx)
 12b:	30 31                	xor    %dh,(%ecx)
 12d:	36 30 36             	xor    %dh,%ss:(%esi)
 130:	30 39                	xor    %bh,(%ecx)
 132:	20 2d 6d 33 32 20    	and    %ch,0x2032336d
 138:	2d 6d 74 75 6e       	sub    $0x6e75746d,%eax
 13d:	65 3d 67 65 6e 65    	gs cmp $0x656e6567,%eax
 143:	72 69                	jb     1ae <multiboot_header-0xffed2>
 145:	63 20                	arpl   %sp,(%eax)
 147:	2d 6d 61 72 63       	sub    $0x6372616d,%eax
 14c:	68 3d 69 36 38       	push   $0x3836693d
 151:	36 20 2d 67 20 2d 4f 	and    %ch,%ss:0x4f2d2067
 158:	73 20                	jae    17a <multiboot_header-0xfff06>
 15a:	2d 73 74 64 3d       	sub    $0x3d647473,%eax
 15f:	67 6e                	outsb  %ds:(%si),(%dx)
 161:	75 39                	jne    19c <multiboot_header-0xffee4>
 163:	39 20                	cmp    %esp,(%eax)
 165:	2d 66 6e 6f 2d       	sub    $0x2d6f6e66,%eax
 16a:	62 75 69             	bound  %esi,0x69(%ebp)
 16d:	6c                   	insb   (%dx),%es:(%edi)
 16e:	74 69                	je     1d9 <multiboot_header-0xffea7>
 170:	6e                   	outsb  %ds:(%esi),(%dx)
 171:	20 2d 66 66 72 65    	and    %ch,0x65726666
 177:	65 73 74             	gs jae 1ee <multiboot_header-0xffe92>
 17a:	61                   	popa   
 17b:	6e                   	outsb  %ds:(%esi),(%dx)
 17c:	64 69 6e 67 20 2d 66 	imul   $0x6e662d20,%fs:0x67(%esi),%ebp
 183:	6e 
 184:	6f                   	outsl  %ds:(%esi),(%dx)
 185:	2d 61 73 79 6e       	sub    $0x6e797361,%eax
 18a:	63 68 72             	arpl   %bp,0x72(%eax)
 18d:	6f                   	outsl  %ds:(%esi),(%dx)
 18e:	6e                   	outsb  %ds:(%esi),(%dx)
 18f:	6f                   	outsl  %ds:(%esi),(%dx)
 190:	75 73                	jne    205 <multiboot_header-0xffe7b>
 192:	2d 75 6e 77 69       	sub    $0x69776e75,%eax
 197:	6e                   	outsb  %ds:(%esi),(%dx)
 198:	64 2d 74 61 62 6c    	fs sub $0x6c626174,%eax
 19e:	65 73 20             	gs jae 1c1 <multiboot_header-0xffebf>
 1a1:	2d 66 6e 6f 2d       	sub    $0x2d6f6e66,%eax
 1a6:	63 6f 6d             	arpl   %bp,0x6d(%edi)
 1a9:	6d                   	insl   (%dx),%es:(%edi)
 1aa:	6f                   	outsl  %ds:(%esi),(%dx)
 1ab:	6e                   	outsb  %ds:(%esi),(%dx)
 1ac:	20 2d 66 6e 6f 2d    	and    %ch,0x2d6f6e66
 1b2:	73 74                	jae    228 <multiboot_header-0xffe58>
 1b4:	61                   	popa   
 1b5:	63 6b 2d             	arpl   %bp,0x2d(%ebx)
 1b8:	70 72                	jo     22c <multiboot_header-0xffe54>
 1ba:	6f                   	outsl  %ds:(%esi),(%dx)
 1bb:	74 65                	je     222 <multiboot_header-0xffe5e>
 1bd:	63 74 6f 72          	arpl   %si,0x72(%edi,%ebp,2)
 1c1:	00 73 74             	add    %dh,0x74(%ebx)
 1c4:	72 73                	jb     239 <multiboot_header-0xffe47>
 1c6:	69 7a 65 00 6c 6f 6e 	imul   $0x6e6f6c00,0x65(%edx),%edi
 1cd:	67 20 6c 6f          	and    %ch,0x6f(%si)
 1d1:	6e                   	outsb  %ds:(%esi),(%dx)
 1d2:	67 20 69 6e          	and    %ch,0x6e(%bx,%di)
 1d6:	74 00                	je     1d8 <multiboot_header-0xffea8>
 1d8:	73 68                	jae    242 <multiboot_header-0xffe3e>
 1da:	6e                   	outsb  %ds:(%esi),(%dx)
 1db:	64 78 00             	fs js  1de <multiboot_header-0xffea2>
 1de:	6d                   	insl   (%dx),%es:(%edi)
 1df:	6f                   	outsl  %ds:(%esi),(%dx)
 1e0:	64 73 5f             	fs jae 242 <multiboot_header-0xffe3e>
 1e3:	63 6f 75             	arpl   %bp,0x75(%edi)
 1e6:	6e                   	outsb  %ds:(%esi),(%dx)
 1e7:	74 00                	je     1e9 <multiboot_header-0xffe97>
 1e9:	63 6d 64             	arpl   %bp,0x64(%ebp)
 1ec:	6c                   	insb   (%dx),%es:(%edi)
 1ed:	69 6e 65 00 73 68 6f 	imul   $0x6f687300,0x65(%esi),%ebp
 1f4:	72 74                	jb     26a <multiboot_header-0xffe16>
 1f6:	20 69 6e             	and    %ch,0x6e(%ecx)
 1f9:	74 00                	je     1fb <multiboot_header-0xffe85>
 1fb:	62 6f 6f             	bound  %ebp,0x6f(%edi)
 1fe:	74 5f                	je     25f <multiboot_header-0xffe21>
 200:	64 65 76 69          	fs gs jbe 26d <multiboot_header-0xffe13>
 204:	63 65 00             	arpl   %sp,0x0(%ebp)
 207:	6d                   	insl   (%dx),%es:(%edi)
 208:	65 6d                	gs insl (%dx),%es:(%edi)
 20a:	5f                   	pop    %edi
 20b:	75 70                	jne    27d <multiboot_header-0xffe03>
 20d:	70 65                	jo     274 <multiboot_header-0xffe0c>
 20f:	72 00                	jb     211 <multiboot_header-0xffe6f>
 211:	74 61                	je     274 <multiboot_header-0xffe0c>
 213:	62 73 69             	bound  %esi,0x69(%ebx)
 216:	7a 65                	jp     27d <multiboot_header-0xffe03>
 218:	00 6d 65             	add    %ch,0x65(%ebp)
 21b:	6d                   	insl   (%dx),%es:(%edi)
 21c:	5f                   	pop    %edi
 21d:	6c                   	insb   (%dx),%es:(%edi)
 21e:	6f                   	outsl  %ds:(%esi),(%dx)
 21f:	77 65                	ja     286 <multiboot_header-0xffdfa>
 221:	72 00                	jb     223 <multiboot_header-0xffe5d>
 223:	6d                   	insl   (%dx),%es:(%edi)
 224:	61                   	popa   
 225:	67 69 63 00 6c 69 62 	imul   $0x7662696c,0x0(%bp,%di),%esp
 22c:	76 
 22d:	67 61                	addr16 popa 
 22f:	2e 63 00             	arpl   %ax,%cs:(%eax)
 232:	73 69                	jae    29d <multiboot_header-0xffde3>
 234:	7a 65                	jp     29b <multiboot_header-0xffde5>
 236:	5f                   	pop    %edi
 237:	74 00                	je     239 <multiboot_header-0xffe47>
 239:	6c                   	insb   (%dx),%es:(%edi)
 23a:	69 62 76 67 61 5f 64 	imul   $0x645f6167,0x76(%edx),%esp
 241:	65 66 61             	gs popaw 
 244:	75 6c                	jne    2b2 <multiboot_header-0xffdce>
 246:	74 5f                	je     2a7 <multiboot_header-0xffdd9>
 248:	70 61                	jo     2ab <multiboot_header-0xffdd5>
 24a:	6c                   	insb   (%dx),%es:(%edi)
 24b:	65 74 74             	gs je  2c2 <multiboot_header-0xffdbe>
 24e:	65 00 6c 69 62       	add    %ch,%gs:0x62(%ecx,%ebp,2)
 253:	76 67                	jbe    2bc <multiboot_header-0xffdc4>
 255:	61                   	popa   
 256:	5f                   	pop    %edi
 257:	72 65                	jb     2be <multiboot_header-0xffdc2>
 259:	67 73 5f             	addr16 jae 2bb <multiboot_header-0xffdc5>
 25c:	38 30                	cmp    %dh,(%eax)
 25e:	78 32                	js     292 <multiboot_header-0xffdee>
 260:	35 78 74 65 78       	xor    $0x78657478,%eax
 265:	74 00                	je     267 <multiboot_header-0xffe19>
 267:	6c                   	insb   (%dx),%es:(%edi)
 268:	69 62 76 67 61 5f 73 	imul   $0x735f6167,0x76(%edx),%esp
 26f:	77 69                	ja     2da <multiboot_header-0xffda6>
 271:	74 63                	je     2d6 <multiboot_header-0xffdaa>
 273:	68 5f 6d 6f 64       	push   $0x646f6d5f
 278:	65 31 33             	xor    %esi,%gs:(%ebx)
 27b:	68 00 6d 6d 61       	push   $0x616d6d00
 280:	70 5f                	jo     2e1 <multiboot_header-0xffd9f>
 282:	73 65                	jae    2e9 <multiboot_header-0xffd97>
 284:	6c                   	insb   (%dx),%es:(%edi)
 285:	65 63 74 00 6c       	arpl   %si,%gs:0x6c(%eax,%eax,1)
 28a:	69 62 76 67 61 5f 74 	imul   $0x745f6167,0x76(%edx),%esp
 291:	78 74                	js     307 <multiboot_header-0xffd79>
 293:	5f                   	pop    %edi
 294:	6d                   	insl   (%dx),%es:(%edi)
 295:	6f                   	outsl  %ds:(%esi),(%dx)
 296:	64 65 5f             	fs gs pop %edi
 299:	66 6f                	outsw  %ds:(%esi),(%dx)
 29b:	6e                   	outsb  %ds:(%esi),(%dx)
 29c:	74 00                	je     29e <multiboot_header-0xffde2>
 29e:	6c                   	insb   (%dx),%es:(%edi)
 29f:	69 62 76 67 61 5f 67 	imul   $0x675f6167,0x76(%edx),%esp
 2a6:	65 74 5f             	gs je  308 <multiboot_header-0xffd78>
 2a9:	66 72 61             	data16 jb 30d <multiboot_header-0xffd73>
 2ac:	6d                   	insl   (%dx),%es:(%edi)
 2ad:	65 62 75 66          	bound  %esi,%gs:0x66(%ebp)
 2b1:	66 65 72 00          	data16 gs jb 2b5 <multiboot_header-0xffdcb>
 2b5:	6f                   	outsl  %ds:(%esi),(%dx)
 2b6:	75 74                	jne    32c <multiboot_header-0xffd54>
 2b8:	62 00                	bound  %eax,(%eax)
 2ba:	6e                   	outsb  %ds:(%esi),(%dx)
 2bb:	65 77 5f             	gs ja  31d <multiboot_header-0xffd63>
 2be:	70 61                	jo     321 <multiboot_header-0xffd5f>
 2c0:	6c                   	insb   (%dx),%es:(%edi)
 2c1:	65 74 74             	gs je  338 <multiboot_header-0xffd48>
 2c4:	65 00 6c 69 62       	add    %ch,%gs:0x62(%ecx,%ebp,2)
 2c9:	76 67                	jbe    332 <multiboot_header-0xffd4e>
 2cb:	61                   	popa   
 2cc:	5f                   	pop    %edi
 2cd:	72 65                	jb     334 <multiboot_header-0xffd4c>
 2cf:	67 73 5f             	addr16 jae 331 <multiboot_header-0xffd4f>
 2d2:	33 32                	xor    (%edx),%esi
 2d4:	30 78 32             	xor    %bh,0x32(%eax)
 2d7:	30 30                	xor    %dh,(%eax)
 2d9:	78 32                	js     30d <multiboot_header-0xffd73>
 2db:	35 36 00 76 72       	xor    $0x72760036,%eax
 2e0:	61                   	popa   
 2e1:	6d                   	insl   (%dx),%es:(%edi)
 2e2:	00 6c 69 62          	add    %ch,0x62(%ecx,%ebp,2)
 2e6:	76 67                	jbe    34f <multiboot_header-0xffd31>
 2e8:	61                   	popa   
 2e9:	5f                   	pop    %edi
 2ea:	77 72                	ja     35e <multiboot_header-0xffd22>
 2ec:	69 74 65 5f 72 65 67 	imul   $0x73676572,0x5f(%ebp,%eiz,2),%esi
 2f3:	73 
 2f4:	00 73 69             	add    %dh,0x69(%ebx)
 2f7:	7a 65                	jp     35e <multiboot_header-0xffd22>
 2f9:	74 79                	je     374 <multiboot_header-0xffd0c>
 2fb:	70 65                	jo     362 <multiboot_header-0xffd1e>
 2fd:	00 6c 69 62          	add    %ch,0x62(%ecx,%ebp,2)
 301:	76 67                	jbe    36a <multiboot_header-0xffd16>
 303:	61                   	popa   
 304:	5f                   	pop    %edi
 305:	73 65                	jae    36c <multiboot_header-0xffd14>
 307:	74 5f                	je     368 <multiboot_header-0xffd18>
 309:	70 61                	jo     36c <multiboot_header-0xffd14>
 30b:	6c                   	insb   (%dx),%es:(%edi)
 30c:	65 74 74             	gs je  383 <multiboot_header-0xffcfd>
 30f:	65 00 6c 69 62       	add    %ch,%gs:0x62(%ecx,%ebp,2)
 314:	76 67                	jbe    37d <multiboot_header-0xffd03>
 316:	61                   	popa   
 317:	5f                   	pop    %edi
 318:	73 77                	jae    391 <multiboot_header-0xffcef>
 31a:	69 74 63 68 5f 6d 6f 	imul   $0x646f6d5f,0x68(%ebx,%eiz,2),%esi
 321:	64 
 322:	65 33 68 00          	xor    %gs:0x0(%eax),%ebp
 326:	67 64 74 5f          	addr16 fs je 389 <multiboot_header-0xffcf7>
 32a:	65 6e                	outsb  %gs:(%esi),(%dx)
 32c:	74 72                	je     3a0 <multiboot_header-0xffce0>
 32e:	79 5f                	jns    38f <multiboot_header-0xffcf1>
 330:	73 74                	jae    3a6 <multiboot_header-0xffcda>
 332:	72 75                	jb     3a9 <multiboot_header-0xffcd7>
 334:	63 74 00 61          	arpl   %si,0x61(%eax,%eax,1)
 338:	63 63 65             	arpl   %sp,0x65(%ebx)
 33b:	73 73                	jae    3b0 <multiboot_header-0xffcd0>
 33d:	00 6c 69 6d          	add    %ch,0x6d(%ecx,%ebp,2)
 341:	69 74 00 67 64 74 5f 	imul   $0x655f7464,0x67(%eax,%eax,1),%esi
 348:	65 
 349:	6e                   	outsb  %ds:(%esi),(%dx)
 34a:	74 72                	je     3be <multiboot_header-0xffcc2>
 34c:	79 5f                	jns    3ad <multiboot_header-0xffcd3>
 34e:	74 00                	je     350 <multiboot_header-0xffd30>
 350:	62 61 73             	bound  %esp,0x73(%ecx)
 353:	65 5f                	gs pop %edi
 355:	6d                   	insl   (%dx),%es:(%edi)
 356:	69 64 64 6c 65 00 67 	imul   $0x64670065,0x6c(%esp,%eiz,2),%esp
 35d:	64 
 35e:	74 5f                	je     3bf <multiboot_header-0xffcc1>
 360:	65 6e                	outsb  %gs:(%esi),(%dx)
 362:	74 72                	je     3d6 <multiboot_header-0xffcaa>
 364:	69 65 73 00 67 64 74 	imul   $0x74646700,0x73(%ebp),%esp
 36b:	5f                   	pop    %edi
 36c:	70 74                	jo     3e2 <multiboot_header-0xffc9e>
 36e:	72 5f                	jb     3cf <multiboot_header-0xffcb1>
 370:	73 74                	jae    3e6 <multiboot_header-0xffc9a>
 372:	72 75                	jb     3e9 <multiboot_header-0xffc97>
 374:	63 74 00 62          	arpl   %si,0x62(%eax,%eax,1)
 378:	61                   	popa   
 379:	73 65                	jae    3e0 <multiboot_header-0xffca0>
 37b:	00 67 64             	add    %ah,0x64(%edi)
 37e:	74 2e                	je     3ae <multiboot_header-0xffcd2>
 380:	63 00                	arpl   %ax,(%eax)
 382:	67 72 61             	addr16 jb 3e6 <multiboot_header-0xffc9a>
 385:	6e                   	outsb  %ds:(%esi),(%dx)
 386:	00 6c 69 6d          	add    %ch,0x6d(%ecx,%ebp,2)
 38a:	69 74 5f 6c 6f 77 00 	imul   $0x6200776f,0x6c(%edi,%ebx,2),%esi
 391:	62 
 392:	61                   	popa   
 393:	73 65                	jae    3fa <multiboot_header-0xffc86>
 395:	5f                   	pop    %edi
 396:	68 69 67 68 00       	push   $0x686769
 39b:	62 61 73             	bound  %esp,0x73(%ecx)
 39e:	65 5f                	gs pop %edi
 3a0:	6c                   	insb   (%dx),%es:(%edi)
 3a1:	6f                   	outsl  %ds:(%esi),(%dx)
 3a2:	77 00                	ja     3a4 <multiboot_header-0xffcdc>
 3a4:	67 72 61             	addr16 jb 408 <multiboot_header-0xffc78>
 3a7:	6e                   	outsb  %ds:(%esi),(%dx)
 3a8:	75 6c                	jne    416 <multiboot_header-0xffc6a>
 3aa:	61                   	popa   
 3ab:	72 69                	jb     416 <multiboot_header-0xffc6a>
 3ad:	74 79                	je     428 <multiboot_header-0xffc58>
 3af:	00 67 64             	add    %ah,0x64(%edi)
 3b2:	74 5f                	je     413 <multiboot_header-0xffc6d>
 3b4:	73 65                	jae    41b <multiboot_header-0xffc65>
 3b6:	74 5f                	je     417 <multiboot_header-0xffc69>
 3b8:	67 61                	addr16 popa 
 3ba:	74 65                	je     421 <multiboot_header-0xffc5f>
 3bc:	00 67 64             	add    %ah,0x64(%edi)
 3bf:	74 5f                	je     420 <multiboot_header-0xffc60>
 3c1:	70 74                	jo     437 <multiboot_header-0xffc49>
 3c3:	72 00                	jb     3c5 <multiboot_header-0xffcbb>
 3c5:	67 64 74 5f          	addr16 fs je 428 <multiboot_header-0xffc58>
 3c9:	70 74                	jo     43f <multiboot_header-0xffc41>
 3cb:	72 5f                	jb     42c <multiboot_header-0xffc54>
 3cd:	74 00                	je     3cf <multiboot_header-0xffcb1>
 3cf:	77 72                	ja     443 <multiboot_header-0xffc3d>
 3d1:	69 74 65 2e 63 00 69 	imul   $0x64690063,0x2e(%ebp,%eiz,2),%esi
 3d8:	64 
 3d9:	74 5f                	je     43a <multiboot_header-0xffc46>
 3db:	65 6e                	outsb  %gs:(%esi),(%dx)
 3dd:	74 72                	je     451 <multiboot_header-0xffc2f>
 3df:	69 65 73 00 69 64 74 	imul   $0x74646900,0x73(%ebp),%esp
 3e6:	5f                   	pop    %edi
 3e7:	6c                   	insb   (%dx),%es:(%edi)
 3e8:	6f                   	outsl  %ds:(%esi),(%dx)
 3e9:	61                   	popa   
 3ea:	64 00 62 61          	add    %ah,%fs:0x61(%edx)
 3ee:	73 65                	jae    455 <multiboot_header-0xffc2b>
 3f0:	5f                   	pop    %edi
 3f1:	68 69 00 69 64       	push   $0x64690069
 3f6:	74 5f                	je     457 <multiboot_header-0xffc29>
 3f8:	65 6e                	outsb  %gs:(%esi),(%dx)
 3fa:	74 72                	je     46e <multiboot_header-0xffc12>
 3fc:	79 5f                	jns    45d <multiboot_header-0xffc23>
 3fe:	74 00                	je     400 <multiboot_header-0xffc80>
 400:	62 61 73             	bound  %esp,0x73(%ecx)
 403:	65 5f                	gs pop %edi
 405:	6c                   	insb   (%dx),%es:(%edi)
 406:	6f                   	outsl  %ds:(%esi),(%dx)
 407:	00 61 6c             	add    %ah,0x6c(%ecx)
 40a:	77 61                	ja     46d <multiboot_header-0xffc13>
 40c:	79 73                	jns    481 <multiboot_header-0xffbff>
 40e:	30 00                	xor    %al,(%eax)
 410:	69 64 74 5f 65 6e 74 	imul   $0x72746e65,0x5f(%esp,%esi,2),%esp
 417:	72 
 418:	79 5f                	jns    479 <multiboot_header-0xffc07>
 41a:	73 74                	jae    490 <multiboot_header-0xffbf0>
 41c:	72 75                	jb     493 <multiboot_header-0xffbed>
 41e:	63 74 00 69          	arpl   %si,0x69(%eax,%eax,1)
 422:	64 74 5f             	fs je  484 <multiboot_header-0xffbfc>
 425:	73 65                	jae    48c <multiboot_header-0xffbf4>
 427:	74 5f                	je     488 <multiboot_header-0xffbf8>
 429:	67 61                	addr16 popa 
 42b:	74 65                	je     492 <multiboot_header-0xffbee>
 42d:	00 69 64             	add    %ch,0x64(%ecx)
 430:	74 5f                	je     491 <multiboot_header-0xffbef>
 432:	70 74                	jo     4a8 <multiboot_header-0xffbd8>
 434:	72 5f                	jb     495 <multiboot_header-0xffbeb>
 436:	73 74                	jae    4ac <multiboot_header-0xffbd4>
 438:	72 75                	jb     4af <multiboot_header-0xffbd1>
 43a:	63 74 00 69          	arpl   %si,0x69(%eax,%eax,1)
 43e:	64 74 5f             	fs je  4a0 <multiboot_header-0xffbe0>
 441:	70 74                	jo     4b7 <multiboot_header-0xffbc9>
 443:	72 5f                	jb     4a4 <multiboot_header-0xffbdc>
 445:	74 00                	je     447 <multiboot_header-0xffc39>
 447:	69 64 74 5f 70 74 72 	imul   $0x727470,0x5f(%esp,%esi,2),%esp
 44e:	00 
 44f:	69 64 74 2e 63 00 6d 	imul   $0x656d0063,0x2e(%esp,%esi,2),%esp
 456:	65 
 457:	6d                   	insl   (%dx),%es:(%edi)
 458:	73 65                	jae    4bf <multiboot_header-0xffbc1>
 45a:	74 00                	je     45c <multiboot_header-0xffc24>
 45c:	6d                   	insl   (%dx),%es:(%edi)
 45d:	6f                   	outsl  %ds:(%esi),(%dx)
 45e:	6e                   	outsb  %ds:(%esi),(%dx)
 45f:	69 74 6f 72 5f 70 75 	imul   $0x7475705f,0x72(%edi,%ebp,2),%esi
 466:	74 
 467:	00 75 73             	add    %dh,0x73(%ebp)
 46a:	65 72 65             	gs jb  4d2 <multiboot_header-0xffbae>
 46d:	73 70                	jae    4df <multiboot_header-0xffba1>
 46f:	00 69 73             	add    %ch,0x73(%ecx)
 472:	72 2e                	jb     4a2 <multiboot_header-0xffbde>
 474:	63 00                	arpl   %ax,(%eax)
 476:	69 6e 74 5f 6e 6f 00 	imul   $0x6f6e5f,0x74(%esi),%ebp
 47d:	69 73 72 5f 68 61 6e 	imul   $0x6e61685f,0x72(%ebx),%esi
 484:	64 6c                	fs insb (%dx),%es:(%edi)
 486:	65 72 00             	gs jb  489 <multiboot_header-0xffbf7>
 489:	72 65                	jb     4f0 <multiboot_header-0xffb90>
 48b:	67 69 73 74 65 72 73 	imul   $0x5f737265,0x74(%bp,%di),%esi
 492:	5f 
 493:	74 00                	je     495 <multiboot_header-0xffbeb>
 495:	65 66 6c             	gs data16 insb (%dx),%es:(%edi)
 498:	61                   	popa   
 499:	67 73 00             	addr16 jae 49c <multiboot_header-0xffbe4>
 49c:	65 72 72             	gs jb  511 <multiboot_header-0xffb6f>
 49f:	5f                   	pop    %edi
 4a0:	63 6f 64             	arpl   %bp,0x64(%edi)
 4a3:	65 00 65 78          	add    %ah,%gs:0x78(%ebp)
 4a7:	63 65 70             	arpl   %sp,0x70(%ebp)
 4aa:	74 69                	je     515 <multiboot_header-0xffb6b>
 4ac:	6f                   	outsl  %ds:(%esi),(%dx)
 4ad:	6e                   	outsb  %ds:(%esi),(%dx)
 4ae:	5f                   	pop    %edi
 4af:	6d                   	insl   (%dx),%es:(%edi)
 4b0:	65 73 73             	gs jae 526 <multiboot_header-0xffb5a>
 4b3:	61                   	popa   
 4b4:	67 65 73 00          	addr16 gs jae 4b8 <multiboot_header-0xffbc8>
 4b8:	72 65                	jb     51f <multiboot_header-0xffb61>
 4ba:	67 69 73 74 65 72 73 	imul   $0x737265,0x74(%bp,%di),%esi
 4c1:	00 
 4c2:	6d                   	insl   (%dx),%es:(%edi)
 4c3:	6f                   	outsl  %ds:(%esi),(%dx)
 4c4:	6e                   	outsb  %ds:(%esi),(%dx)
 4c5:	69 74 6f 72 5f 77 72 	imul   $0x6972775f,0x72(%edi,%ebp,2),%esi
 4cc:	69 
 4cd:	74 65                	je     534 <multiboot_header-0xffb4c>
 4cf:	00 69 72             	add    %ch,0x72(%ecx)
 4d2:	71 5f                	jno    533 <multiboot_header-0xffb4d>
 4d4:	72 6f                	jb     545 <multiboot_header-0xffb3b>
 4d6:	75 74                	jne    54c <multiboot_header-0xffb34>
 4d8:	69 6e 65 73 00 69 72 	imul   $0x72690073,0x65(%esi),%ebp
 4df:	71 5f                	jno    540 <multiboot_header-0xffb40>
 4e1:	69 6e 73 74 61 6c 6c 	imul   $0x6c6c6174,0x73(%esi),%ebp
 4e8:	5f                   	pop    %edi
 4e9:	68 61 6e 64 6c       	push   $0x6c646e61
 4ee:	65 72 00             	gs jb  4f1 <multiboot_header-0xffb8f>
 4f1:	5f                   	pop    %edi
 4f2:	69 72 71 5f 68 61 6e 	imul   $0x6e61685f,0x71(%edx),%esi
 4f9:	64 6c                	fs insb (%dx),%es:(%edi)
 4fb:	65 72 00             	gs jb  4fe <multiboot_header-0xffb82>
 4fe:	6f                   	outsl  %ds:(%esi),(%dx)
 4ff:	75 74                	jne    575 <multiboot_header-0xffb0b>
 501:	70 75                	jo     578 <multiboot_header-0xffb08>
 503:	74 00                	je     505 <multiboot_header-0xffb7b>
 505:	69 72 71 2e 63 00 69 	imul   $0x6900632e,0x71(%edx),%esi
 50c:	72 71                	jb     57f <multiboot_header-0xffb01>
 50e:	5f                   	pop    %edi
 50f:	75 6e                	jne    57f <multiboot_header-0xffb01>
 511:	69 6e 73 74 61 6c 6c 	imul   $0x6c6c6174,0x73(%esi),%ebp
 518:	5f                   	pop    %edi
 519:	68 61 6e 64 6c       	push   $0x6c646e61
 51e:	65 72 00             	gs jb  521 <multiboot_header-0xffb5f>
 521:	69 72 71 5f 72 65 6d 	imul   $0x6d65725f,0x71(%edx),%esi
 528:	61                   	popa   
 529:	70 00                	jo     52b <multiboot_header-0xffb55>
 52b:	70 6f                	jo     59c <multiboot_header-0xffae4>
 52d:	72 74                	jb     5a3 <multiboot_header-0xffadd>
 52f:	00 69 6f             	add    %ch,0x6f(%ecx)
 532:	2e 63 00             	arpl   %ax,%cs:(%eax)
 535:	74 69                	je     5a0 <multiboot_header-0xffae0>
 537:	6d                   	insl   (%dx),%es:(%edi)
 538:	65 72 5f             	gs jb  59a <multiboot_header-0xffae6>
 53b:	74 69                	je     5a6 <multiboot_header-0xffada>
 53d:	63 6b 73             	arpl   %bp,0x73(%ebx)
 540:	00 65 74             	add    %ah,0x74(%ebp)
 543:	69 63 6b 73 00 64 69 	imul   $0x69640073,0x6b(%ebx),%esp
 54a:	76 69                	jbe    5b5 <multiboot_header-0xffacb>
 54c:	73 6f                	jae    5bd <multiboot_header-0xffac3>
 54e:	72 00                	jb     550 <multiboot_header-0xffb30>
 550:	74 69                	je     5bb <multiboot_header-0xffac5>
 552:	6d                   	insl   (%dx),%es:(%edi)
 553:	65 72 5f             	gs jb  5b5 <multiboot_header-0xffacb>
 556:	70 68                	jo     5c0 <multiboot_header-0xffac0>
 558:	61                   	popa   
 559:	73 65                	jae    5c0 <multiboot_header-0xffac0>
 55b:	00 70 69             	add    %dh,0x69(%eax)
 55e:	74 2e                	je     58e <multiboot_header-0xffaf2>
 560:	63 00                	arpl   %ax,(%eax)
 562:	74 69                	je     5cd <multiboot_header-0xffab3>
 564:	6d                   	insl   (%dx),%es:(%edi)
 565:	65 72 5f             	gs jb  5c7 <multiboot_header-0xffab9>
 568:	77 61                	ja     5cb <multiboot_header-0xffab5>
 56a:	69 74 00 74 69 6d 65 	imul   $0x72656d69,0x74(%eax,%eax,1),%esi
 571:	72 
 572:	5f                   	pop    %edi
 573:	68 61 6e 64 6c       	push   $0x6c646e61
 578:	65 72 00             	gs jb  57b <multiboot_header-0xffb05>
 57b:	6b 62 64 75          	imul   $0x75,0x64(%edx),%esp
 57f:	73 00                	jae    581 <multiboot_header-0xffaff>
 581:	6b 65 79 62          	imul   $0x62,0x79(%ebp),%esp
 585:	6f                   	outsl  %ds:(%esi),(%dx)
 586:	61                   	popa   
 587:	72 64                	jb     5ed <multiboot_header-0xffa93>
 589:	2e 63 00             	arpl   %ax,%cs:(%eax)
 58c:	73 63                	jae    5f1 <multiboot_header-0xffa8f>
 58e:	61                   	popa   
 58f:	6e                   	outsb  %ds:(%esi),(%dx)
 590:	63 6f 64             	arpl   %bp,0x64(%edi)
 593:	65 00 6b 65          	add    %ch,%gs:0x65(%ebx)
 597:	79 62                	jns    5fb <multiboot_header-0xffa85>
 599:	6f                   	outsl  %ds:(%esi),(%dx)
 59a:	61                   	popa   
 59b:	72 64                	jb     601 <multiboot_header-0xffa7f>
 59d:	5f                   	pop    %edi
 59e:	68 61 6e 64 6c       	push   $0x6c646e61
 5a3:	65 72 00             	gs jb  5a6 <multiboot_header-0xffada>
 5a6:	66 6f                	outsw  %ds:(%esi),(%dx)
 5a8:	72 65                	jb     60f <multiboot_header-0xffa71>
 5aa:	43                   	inc    %ebx
 5ab:	6f                   	outsl  %ds:(%esi),(%dx)
 5ac:	6c                   	insb   (%dx),%es:(%edi)
 5ad:	6f                   	outsl  %ds:(%esi),(%dx)
 5ae:	75 72                	jne    622 <multiboot_header-0xffa5e>
 5b0:	00 63 75             	add    %ah,0x75(%ebx)
 5b3:	72 73                	jb     628 <multiboot_header-0xffa58>
 5b5:	6f                   	outsl  %ds:(%esi),(%dx)
 5b6:	72 4c                	jb     604 <multiboot_header-0xffa7c>
 5b8:	6f                   	outsl  %ds:(%esi),(%dx)
 5b9:	63 61 74             	arpl   %sp,0x74(%ecx)
 5bc:	69 6f 6e 00 73 63 72 	imul   $0x72637300,0x6e(%edi),%ebp
 5c3:	6f                   	outsl  %ds:(%esi),(%dx)
 5c4:	6c                   	insb   (%dx),%es:(%edi)
 5c5:	6c                   	insb   (%dx),%es:(%edi)
 5c6:	00 61 74             	add    %ah,0x74(%ecx)
 5c9:	74 72                	je     63d <multiboot_header-0xffa43>
 5cb:	69 62 75 74 65 00 62 	imul   $0x62006574,0x75(%edx),%esp
 5d2:	6c                   	insb   (%dx),%es:(%edi)
 5d3:	61                   	popa   
 5d4:	6e                   	outsb  %ds:(%esi),(%dx)
 5d5:	6b 00 6d             	imul   $0x6d,(%eax),%eax
 5d8:	6f                   	outsl  %ds:(%esi),(%dx)
 5d9:	6e                   	outsb  %ds:(%esi),(%dx)
 5da:	69 74 6f 72 2e 63 00 	imul   $0x6d00632e,0x72(%edi,%ebp,2),%esi
 5e1:	6d 
 5e2:	6f                   	outsl  %ds:(%esi),(%dx)
 5e3:	6e                   	outsb  %ds:(%esi),(%dx)
 5e4:	69 74 6f 72 5f 77 72 	imul   $0x6972775f,0x72(%edi,%ebp,2),%esi
 5eb:	69 
 5ec:	74 65                	je     653 <multiboot_header-0xffa2d>
 5ee:	5f                   	pop    %edi
 5ef:	64 65 63 00          	fs arpl %ax,%gs:(%eax)
 5f3:	6c                   	insb   (%dx),%es:(%edi)
 5f4:	6f                   	outsl  %ds:(%esi),(%dx)
 5f5:	63 61 74             	arpl   %sp,0x74(%ecx)
 5f8:	69 6f 6e 00 63 75 72 	imul   $0x72756300,0x6e(%edi),%ebp
 5ff:	73 6f                	jae    670 <multiboot_header-0xffa10>
 601:	72 5f                	jb     662 <multiboot_header-0xffa1e>
 603:	78 00                	js     605 <multiboot_header-0xffa7b>
 605:	6d                   	insl   (%dx),%es:(%edi)
 606:	6f                   	outsl  %ds:(%esi),(%dx)
 607:	6e                   	outsb  %ds:(%esi),(%dx)
 608:	69 74 6f 72 5f 63 6c 	imul   $0x656c635f,0x72(%edi,%ebp,2),%esi
 60f:	65 
 610:	61                   	popa   
 611:	72 00                	jb     613 <multiboot_header-0xffa6d>
 613:	6e                   	outsb  %ds:(%esi),(%dx)
 614:	6f                   	outsl  %ds:(%esi),(%dx)
 615:	5a                   	pop    %edx
 616:	65 72 6f             	gs jb  688 <multiboot_header-0xff9f8>
 619:	65 73 00             	gs jae 61c <multiboot_header-0xffa64>
 61c:	62 61 63             	bound  %esp,0x63(%ecx)
 61f:	6b 43 6f 6c          	imul   $0x6c,0x6f(%ebx),%eax
 623:	6f                   	outsl  %ds:(%esi),(%dx)
 624:	75 72                	jne    698 <multiboot_header-0xff9e8>
 626:	00 75 38             	add    %dh,0x38(%ebp)
 629:	69 6e 74 00 75 33 32 	imul   $0x32337500,0x74(%esi),%ebp
 630:	69 6e 74 00 76 69 64 	imul   $0x64697600,0x74(%esi),%ebp
 637:	65 6f                	outsl  %gs:(%esi),(%dx)
 639:	5f                   	pop    %edi
 63a:	6d                   	insl   (%dx),%es:(%edi)
 63b:	65 6d                	gs insl (%dx),%es:(%edi)
 63d:	6f                   	outsl  %ds:(%esi),(%dx)
 63e:	72 79                	jb     6b9 <multiboot_header-0xff9c7>
 640:	00 6d 6f             	add    %ch,0x6f(%ebp)
 643:	6e                   	outsb  %ds:(%esi),(%dx)
 644:	69 74 6f 72 5f 77 72 	imul   $0x6972775f,0x72(%edi,%ebp,2),%esi
 64b:	69 
 64c:	74 65                	je     6b3 <multiboot_header-0xff9cd>
 64e:	5f                   	pop    %edi
 64f:	68 65 78 00 63       	push   $0x63007865
 654:	75 72                	jne    6c8 <multiboot_header-0xff9b8>
 656:	73 6f                	jae    6c7 <multiboot_header-0xff9b9>
 658:	72 5f                	jb     6b9 <multiboot_header-0xff9c7>
 65a:	79 00                	jns    65c <multiboot_header-0xffa24>
 65c:	73 33                	jae    691 <multiboot_header-0xff9ef>
 65e:	32 69 6e             	xor    0x6e(%ecx),%ch
 661:	74 00                	je     663 <multiboot_header-0xffa1d>
 663:	6d                   	insl   (%dx),%es:(%edi)
 664:	6f                   	outsl  %ds:(%esi),(%dx)
 665:	76 65                	jbe    6cc <multiboot_header-0xff9b4>
 667:	5f                   	pop    %edi
 668:	63 75 72             	arpl   %si,0x72(%ebp)
 66b:	73 6f                	jae    6dc <multiboot_header-0xff9a4>
 66d:	72 00                	jb     66f <multiboot_header-0xffa11>
 66f:	61                   	popa   
 670:	74 74                	je     6e6 <multiboot_header-0xff99a>
 672:	72 69                	jb     6dd <multiboot_header-0xff9a3>
 674:	62 75 74             	bound  %esi,0x74(%ebp)
 677:	65 42                	gs inc %edx
 679:	79 74                	jns    6ef <multiboot_header-0xff991>
 67b:	65 00 75 31          	add    %dh,%gs:0x31(%ebp)
 67f:	36 69 6e 74 00 6d 65 	imul   $0x6d656d00,%ss:0x74(%esi),%ebp
 686:	6d 
 687:	73 65                	jae    6ee <multiboot_header-0xff992>
 689:	74 2e                	je     6b9 <multiboot_header-0xff9c7>
 68b:	63 00                	arpl   %ax,(%eax)
 68d:	2f                   	das    
 68e:	68 6f 6d 65 2f       	push   $0x2f656d6f
 693:	6e                   	outsb  %ds:(%esi),(%dx)
 694:	69 63 6f 2f 44 6f 63 	imul   $0x636f442f,0x6f(%ebx),%esp
 69b:	75 6d                	jne    70a <multiboot_header-0xff976>
 69d:	65 6e                	outsb  %gs:(%esi),(%dx)
 69f:	74 73                	je     714 <multiboot_header-0xff96c>
 6a1:	2f                   	das    
 6a2:	4b                   	dec    %ebx
 6a3:	2f                   	das    
 6a4:	6c                   	insb   (%dx),%es:(%edi)
 6a5:	69 62 73 2f 6c 69 62 	imul   $0x62696c2f,0x73(%edx),%esp
 6ac:	63 00                	arpl   %ax,(%eax)

Disassembly of section .comment:

00000000 <.comment>:
   0:	47                   	inc    %edi
   1:	43                   	inc    %ebx
   2:	43                   	inc    %ebx
   3:	3a 20                	cmp    (%eax),%ah
   5:	28 55 62             	sub    %dl,0x62(%ebp)
   8:	75 6e                	jne    78 <multiboot_header-0x100008>
   a:	74 75                	je     81 <multiboot_header-0xfffff>
   c:	20 35 2e 34 2e 30    	and    %dh,0x302e342e
  12:	2d 36 75 62 75       	sub    $0x75627536,%eax
  17:	6e                   	outsb  %ds:(%esi),(%dx)
  18:	74 75                	je     8f <multiboot_header-0xffff1>
  1a:	31 7e 31             	xor    %edi,0x31(%esi)
  1d:	36 2e 30 34 2e       	ss xor %dh,%cs:(%esi,%ebp,1)
  22:	35 29 20 35 2e       	xor    $0x2e352029,%eax
  27:	34 2e                	xor    $0x2e,%al
  29:	30 20                	xor    %ah,(%eax)
  2b:	32 30                	xor    (%eax),%dh
  2d:	31 36                	xor    %esi,(%esi)
  2f:	30 36                	xor    %dh,(%esi)
  31:	30 39                	xor    %bh,(%ecx)
	...

Disassembly of section .debug_frame:

00000000 <.debug_frame>:
   0:	10 00                	adc    %al,(%eax)
   2:	00 00                	add    %al,(%eax)
   4:	ff                   	(bad)  
   5:	ff                   	(bad)  
   6:	ff                   	(bad)  
   7:	ff 01                	incl   (%ecx)
   9:	00 01                	add    %al,(%ecx)
   b:	7c 08                	jl     15 <multiboot_header-0x10006b>
   d:	0c 04                	or     $0x4,%al
   f:	04 88                	add    $0x88,%al
  11:	01 00                	add    %eax,(%eax)
  13:	00 14 00             	add    %dl,(%eax,%eax,1)
  16:	00 00                	add    %al,(%eax)
  18:	00 00                	add    %al,(%eax)
  1a:	00 00                	add    %al,(%eax)
  1c:	8c 00                	mov    %es,(%eax)
  1e:	10 00                	adc    %al,(%eax)
  20:	2d 00 00 00 41       	sub    $0x41000000,%eax
  25:	0e                   	push   %cs
  26:	08 85 02 42 0d 05    	or     %al,0x50d4202(%ebp)
  2c:	10 00                	adc    %al,(%eax)
  2e:	00 00                	add    %al,(%eax)
  30:	ff                   	(bad)  
  31:	ff                   	(bad)  
  32:	ff                   	(bad)  
  33:	ff 01                	incl   (%ecx)
  35:	00 01                	add    %al,(%ecx)
  37:	7c 08                	jl     41 <multiboot_header-0x10003f>
  39:	0c 04                	or     $0x4,%al
  3b:	04 88                	add    $0x88,%al
  3d:	01 00                	add    %eax,(%eax)
  3f:	00 24 00             	add    %ah,(%eax,%eax,1)
  42:	00 00                	add    %al,(%eax)
  44:	2c 00                	sub    $0x0,%al
  46:	00 00                	add    %al,(%eax)
  48:	c2 00 10             	ret    $0x1000
  4b:	00 6f 00             	add    %ch,0x0(%edi)
  4e:	00 00                	add    %al,(%eax)
  50:	41                   	inc    %ecx
  51:	0e                   	push   %cs
  52:	08 85 02 42 0d 05    	or     %al,0x50d4202(%ebp)
  58:	42                   	inc    %edx
  59:	86 03                	xchg   %al,(%ebx)
  5b:	83 04 02 67          	addl   $0x67,(%edx,%eax,1)
  5f:	c3                   	ret    
  60:	41                   	inc    %ecx
  61:	c6 41 c5 0c          	movb   $0xc,-0x3b(%ecx)
  65:	04 04                	add    $0x4,%al
  67:	00 24 00             	add    %ah,(%eax,%eax,1)
  6a:	00 00                	add    %al,(%eax)
  6c:	2c 00                	sub    $0x0,%al
  6e:	00 00                	add    %al,(%eax)
  70:	31 01                	xor    %eax,(%ecx)
  72:	10 00                	adc    %al,(%eax)
  74:	7b 01                	jnp    77 <multiboot_header-0x100009>
  76:	00 00                	add    %al,(%eax)
  78:	41                   	inc    %ecx
  79:	0e                   	push   %cs
  7a:	08 85 02 42 0d 05    	or     %al,0x50d4202(%ebp)
  80:	42                   	inc    %edx
  81:	86 03                	xchg   %al,(%ebx)
  83:	83 04 03 73          	addl   $0x73,(%ebx,%eax,1)
  87:	01 c3                	add    %eax,%ebx
  89:	41                   	inc    %ecx
  8a:	c6 41 c5 0c          	movb   $0xc,-0x3b(%ecx)
  8e:	04 04                	add    $0x4,%al
  90:	1c 00                	sbb    $0x0,%al
  92:	00 00                	add    %al,(%eax)
  94:	2c 00                	sub    $0x0,%al
  96:	00 00                	add    %al,(%eax)
  98:	ac                   	lods   %ds:(%esi),%al
  99:	02 10                	add    (%eax),%dl
  9b:	00 29                	add    %ch,(%ecx)
  9d:	00 00                	add    %al,(%eax)
  9f:	00 41 0e             	add    %al,0xe(%ecx)
  a2:	08 85 02 42 0d 05    	or     %al,0x50d4202(%ebp)
  a8:	65 c5 0c 04          	lds    %gs:(%esp,%eax,1),%ecx
  ac:	04 00                	add    $0x0,%al
  ae:	00 00                	add    %al,(%eax)
  b0:	1c 00                	sbb    $0x0,%al
  b2:	00 00                	add    %al,(%eax)
  b4:	2c 00                	sub    $0x0,%al
  b6:	00 00                	add    %al,(%eax)
  b8:	d5 02                	aad    $0x2
  ba:	10 00                	adc    %al,(%eax)
  bc:	2b 00                	sub    (%eax),%eax
  be:	00 00                	add    %al,(%eax)
  c0:	41                   	inc    %ecx
  c1:	0e                   	push   %cs
  c2:	08 85 02 47 0d 05    	or     %al,0x50d4702(%ebp)
  c8:	62                   	(bad)  
  c9:	c5 0c 04             	lds    (%esp,%eax,1),%ecx
  cc:	04 00                	add    $0x0,%al
  ce:	00 00                	add    %al,(%eax)
  d0:	1c 00                	sbb    $0x0,%al
  d2:	00 00                	add    %al,(%eax)
  d4:	2c 00                	sub    $0x0,%al
  d6:	00 00                	add    %al,(%eax)
  d8:	00 03                	add    %al,(%ebx)
  da:	10 00                	adc    %al,(%eax)
  dc:	2a 00                	sub    (%eax),%al
  de:	00 00                	add    %al,(%eax)
  e0:	41                   	inc    %ecx
  e1:	0e                   	push   %cs
  e2:	08 85 02 42 0d 05    	or     %al,0x50d4202(%ebp)
  e8:	5d                   	pop    %ebp
  e9:	c5 0c 04             	lds    (%esp,%eax,1),%ecx
  ec:	04 00                	add    $0x0,%al
  ee:	00 00                	add    %al,(%eax)
  f0:	10 00                	adc    %al,(%eax)
  f2:	00 00                	add    %al,(%eax)
  f4:	ff                   	(bad)  
  f5:	ff                   	(bad)  
  f6:	ff                   	(bad)  
  f7:	ff 01                	incl   (%ecx)
  f9:	00 01                	add    %al,(%ecx)
  fb:	7c 08                	jl     105 <multiboot_header-0xfff7b>
  fd:	0c 04                	or     $0x4,%al
  ff:	04 88                	add    $0x88,%al
 101:	01 00                	add    %eax,(%eax)
 103:	00 1c 00             	add    %bl,(%eax,%eax,1)
 106:	00 00                	add    %al,(%eax)
 108:	f0 00 00             	lock add %al,(%eax)
 10b:	00 2a                	add    %ch,(%edx)
 10d:	03 10                	add    (%eax),%edx
 10f:	00 ce                	add    %cl,%dh
 111:	00 00                	add    %al,(%eax)
 113:	00 41 0e             	add    %al,0xe(%ecx)
 116:	08 85 02 5e 0d 05    	or     %al,0x50d5e02(%ebp)
 11c:	02 ae c5 0c 04 04    	add    0x4040cc5(%esi),%ch
 122:	00 00                	add    %al,(%eax)
 124:	10 00                	adc    %al,(%eax)
 126:	00 00                	add    %al,(%eax)
 128:	ff                   	(bad)  
 129:	ff                   	(bad)  
 12a:	ff                   	(bad)  
 12b:	ff 01                	incl   (%ecx)
 12d:	00 01                	add    %al,(%ecx)
 12f:	7c 08                	jl     139 <multiboot_header-0xfff47>
 131:	0c 04                	or     $0x4,%al
 133:	04 88                	add    $0x88,%al
 135:	01 00                	add    %eax,(%eax)
 137:	00 28                	add    %ch,(%eax)
 139:	00 00                	add    %al,(%eax)
 13b:	00 24 01             	add    %ah,(%ecx,%eax,1)
 13e:	00 00                	add    %al,(%eax)
 140:	f8                   	clc    
 141:	03 10                	add    (%eax),%edx
 143:	00 96 00 00 00 41    	add    %dl,0x41000000(%esi)
 149:	0e                   	push   %cs
 14a:	08 85 02 42 0d 05    	or     %al,0x50d4202(%ebp)
 150:	46                   	inc    %esi
 151:	87 03                	xchg   %eax,(%ebx)
 153:	86 04 83             	xchg   %al,(%ebx,%eax,4)
 156:	05 02 89 c3 41       	add    $0x41c38902,%eax
 15b:	c6 41 c7 41          	movb   $0x41,-0x39(%ecx)
 15f:	c5 0c 04             	lds    (%esp,%eax,1),%ecx
 162:	04 00                	add    $0x0,%al
 164:	28 00                	sub    %al,(%eax)
 166:	00 00                	add    %al,(%eax)
 168:	24 01                	and    $0x1,%al
 16a:	00 00                	add    %al,(%eax)
 16c:	8e 04 10             	mov    (%eax,%edx,1),%es
 16f:	00 37                	add    %dh,(%edi)
 171:	00 00                	add    %al,(%eax)
 173:	00 41 0e             	add    %al,0xe(%ecx)
 176:	08 85 02 42 0d 05    	or     %al,0x50d4202(%ebp)
 17c:	46                   	inc    %esi
 17d:	87 03                	xchg   %eax,(%ebx)
 17f:	86 04 83             	xchg   %al,(%ebx,%eax,4)
 182:	05 6a c3 41 c6       	add    $0xc641c36a,%eax
 187:	41                   	inc    %ecx
 188:	c7 41 c5 0c 04 04 00 	movl   $0x4040c,-0x3b(%ecx)
 18f:	00 10                	add    %dl,(%eax)
 191:	00 00                	add    %al,(%eax)
 193:	00 ff                	add    %bh,%bh
 195:	ff                   	(bad)  
 196:	ff                   	(bad)  
 197:	ff 01                	incl   (%ecx)
 199:	00 01                	add    %al,(%ecx)
 19b:	7c 08                	jl     1a5 <multiboot_header-0xffedb>
 19d:	0c 04                	or     $0x4,%al
 19f:	04 88                	add    $0x88,%al
 1a1:	01 00                	add    %eax,(%eax)
 1a3:	00 1c 00             	add    %bl,(%eax,%eax,1)
 1a6:	00 00                	add    %al,(%eax)
 1a8:	90                   	nop
 1a9:	01 00                	add    %eax,(%eax)
 1ab:	00 ff                	add    %bh,%bh
 1ad:	05 10 00 3c 00       	add    $0x3c0010,%eax
 1b2:	00 00                	add    %al,(%eax)
 1b4:	41                   	inc    %ecx
 1b5:	0e                   	push   %cs
 1b6:	08 85 02 42 0d 05    	or     %al,0x50d4202(%ebp)
 1bc:	71 c5                	jno    183 <multiboot_header-0xffefd>
 1be:	0c 04                	or     $0x4,%al
 1c0:	04 00                	add    $0x0,%al
 1c2:	00 00                	add    %al,(%eax)
 1c4:	1c 00                	sbb    $0x0,%al
 1c6:	00 00                	add    %al,(%eax)
 1c8:	90                   	nop
 1c9:	01 00                	add    %eax,(%eax)
 1cb:	00 3b                	add    %bh,(%ebx)
 1cd:	06                   	push   %es
 1ce:	10 00                	adc    %al,(%eax)
 1d0:	9c                   	pushf  
 1d1:	02 00                	add    (%eax),%al
 1d3:	00 41 0e             	add    %al,0xe(%ecx)
 1d6:	08 85 02 42 0d 05    	or     %al,0x50d4202(%ebp)
 1dc:	03 98 02 c5 0c 04    	add    0x40cc502(%eax),%ebx
 1e2:	04 00                	add    $0x0,%al
 1e4:	1c 00                	sbb    $0x0,%al
 1e6:	00 00                	add    %al,(%eax)
 1e8:	90                   	nop
 1e9:	01 00                	add    %eax,(%eax)
 1eb:	00 d7                	add    %dl,%bh
 1ed:	08 10                	or     %dl,(%eax)
 1ef:	00 33                	add    %dh,(%ebx)
 1f1:	00 00                	add    %al,(%eax)
 1f3:	00 41 0e             	add    %al,0xe(%ecx)
 1f6:	08 85 02 42 0d 05    	or     %al,0x50d4202(%ebp)
 1fc:	6b c5 0c             	imul   $0xc,%ebp,%eax
 1ff:	04 04                	add    $0x4,%al
 201:	00 00                	add    %al,(%eax)
 203:	00 10                	add    %dl,(%eax)
 205:	00 00                	add    %al,(%eax)
 207:	00 ff                	add    %bh,%bh
 209:	ff                   	(bad)  
 20a:	ff                   	(bad)  
 20b:	ff 01                	incl   (%ecx)
 20d:	00 01                	add    %al,(%ecx)
 20f:	7c 08                	jl     219 <multiboot_header-0xffe67>
 211:	0c 04                	or     $0x4,%al
 213:	04 88                	add    $0x88,%al
 215:	01 00                	add    %eax,(%eax)
 217:	00 28                	add    %ch,(%eax)
 219:	00 00                	add    %al,(%eax)
 21b:	00 04 02             	add    %al,(%edx,%eax,1)
 21e:	00 00                	add    %al,(%eax)
 220:	0a 09                	or     (%ecx),%cl
 222:	10 00                	adc    %al,(%eax)
 224:	51                   	push   %ecx
 225:	00 00                	add    %al,(%eax)
 227:	00 41 0e             	add    %al,0xe(%ecx)
 22a:	08 85 02 42 0d 05    	or     %al,0x50d4202(%ebp)
 230:	44                   	inc    %esp
 231:	83 03 75             	addl   $0x75,(%ebx)
 234:	0a c5                	or     %ch,%al
 236:	c3                   	ret    
 237:	0c 04                	or     $0x4,%al
 239:	04 45                	add    $0x45,%al
 23b:	0b 4b c5             	or     -0x3b(%ebx),%ecx
 23e:	c3                   	ret    
 23f:	0c 04                	or     $0x4,%al
 241:	04 00                	add    $0x0,%al
 243:	00 10                	add    %dl,(%eax)
 245:	00 00                	add    %al,(%eax)
 247:	00 ff                	add    %bh,%bh
 249:	ff                   	(bad)  
 24a:	ff                   	(bad)  
 24b:	ff 01                	incl   (%ecx)
 24d:	00 01                	add    %al,(%ecx)
 24f:	7c 08                	jl     259 <multiboot_header-0xffe27>
 251:	0c 04                	or     $0x4,%al
 253:	04 88                	add    $0x88,%al
 255:	01 00                	add    %eax,(%eax)
 257:	00 1c 00             	add    %bl,(%eax,%eax,1)
 25a:	00 00                	add    %al,(%eax)
 25c:	44                   	inc    %esp
 25d:	02 00                	add    (%eax),%al
 25f:	00 5b 09             	add    %bl,0x9(%ebx)
 262:	10 00                	adc    %al,(%eax)
 264:	12 00                	adc    (%eax),%al
 266:	00 00                	add    %al,(%eax)
 268:	41                   	inc    %ecx
 269:	0e                   	push   %cs
 26a:	08 85 02 42 0d 05    	or     %al,0x50d4202(%ebp)
 270:	47                   	inc    %edi
 271:	c5 0c 04             	lds    (%esp,%eax,1),%ecx
 274:	04 00                	add    $0x0,%al
 276:	00 00                	add    %al,(%eax)
 278:	1c 00                	sbb    $0x0,%al
 27a:	00 00                	add    %al,(%eax)
 27c:	44                   	inc    %esp
 27d:	02 00                	add    (%eax),%al
 27f:	00 6d 09             	add    %ch,0x9(%ebp)
 282:	10 00                	adc    %al,(%eax)
 284:	13 00                	adc    (%eax),%eax
 286:	00 00                	add    %al,(%eax)
 288:	41                   	inc    %ecx
 289:	0e                   	push   %cs
 28a:	08 85 02 42 0d 05    	or     %al,0x50d4202(%ebp)
 290:	44                   	inc    %esp
 291:	c5 0c 04             	lds    (%esp,%eax,1),%ecx
 294:	04 00                	add    $0x0,%al
 296:	00 00                	add    %al,(%eax)
 298:	1c 00                	sbb    $0x0,%al
 29a:	00 00                	add    %al,(%eax)
 29c:	44                   	inc    %esp
 29d:	02 00                	add    (%eax),%al
 29f:	00 80 09 10 00 86    	add    %al,-0x79ffeff7(%eax)
 2a5:	00 00                	add    %al,(%eax)
 2a7:	00 41 0e             	add    %al,0xe(%ecx)
 2aa:	08 85 02 42 0d 05    	or     %al,0x50d4202(%ebp)
 2b0:	02 82 c5 0c 04 04    	add    0x4040cc5(%edx),%al
 2b6:	00 00                	add    %al,(%eax)
 2b8:	1c 00                	sbb    $0x0,%al
 2ba:	00 00                	add    %al,(%eax)
 2bc:	44                   	inc    %esp
 2bd:	02 00                	add    (%eax),%al
 2bf:	00 06                	add    %al,(%esi)
 2c1:	0a 10                	or     (%eax),%dl
 2c3:	00 55 01             	add    %dl,0x1(%ebp)
 2c6:	00 00                	add    %al,(%eax)
 2c8:	41                   	inc    %ecx
 2c9:	0e                   	push   %cs
 2ca:	08 85 02 42 0d 05    	or     %al,0x50d4202(%ebp)
 2d0:	03 51 01             	add    0x1(%ecx),%edx
 2d3:	c5 0c 04             	lds    (%esp,%eax,1),%ecx
 2d6:	04 00                	add    $0x0,%al
 2d8:	24 00                	and    $0x0,%al
 2da:	00 00                	add    %al,(%eax)
 2dc:	44                   	inc    %esp
 2dd:	02 00                	add    (%eax),%al
 2df:	00 5b 0b             	add    %bl,0xb(%ebx)
 2e2:	10 00                	adc    %al,(%eax)
 2e4:	7f 00                	jg     2e6 <multiboot_header-0xffd9a>
 2e6:	00 00                	add    %al,(%eax)
 2e8:	41                   	inc    %ecx
 2e9:	0e                   	push   %cs
 2ea:	08 85 02 42 0d 05    	or     %al,0x50d4202(%ebp)
 2f0:	42                   	inc    %edx
 2f1:	86 03                	xchg   %al,(%ebx)
 2f3:	83 04 02 77          	addl   $0x77,(%edx,%eax,1)
 2f7:	c3                   	ret    
 2f8:	41                   	inc    %ecx
 2f9:	c6 41 c5 0c          	movb   $0xc,-0x3b(%ecx)
 2fd:	04 04                	add    $0x4,%al
 2ff:	00 10                	add    %dl,(%eax)
 301:	00 00                	add    %al,(%eax)
 303:	00 ff                	add    %bh,%bh
 305:	ff                   	(bad)  
 306:	ff                   	(bad)  
 307:	ff 01                	incl   (%ecx)
 309:	00 01                	add    %al,(%ecx)
 30b:	7c 08                	jl     315 <multiboot_header-0xffd6b>
 30d:	0c 04                	or     $0x4,%al
 30f:	04 88                	add    $0x88,%al
 311:	01 00                	add    %eax,(%eax)
 313:	00 1c 00             	add    %bl,(%eax,%eax,1)
 316:	00 00                	add    %al,(%eax)
 318:	00 03                	add    %al,(%ebx)
 31a:	00 00                	add    %al,(%eax)
 31c:	79 0c                	jns    32a <multiboot_header-0xffd56>
 31e:	10 00                	adc    %al,(%eax)
 320:	0c 00                	or     $0x0,%al
 322:	00 00                	add    %al,(%eax)
 324:	41                   	inc    %ecx
 325:	0e                   	push   %cs
 326:	08 85 02 42 0d 05    	or     %al,0x50d4202(%ebp)
 32c:	48                   	dec    %eax
 32d:	c5 0c 04             	lds    (%esp,%eax,1),%ecx
 330:	04 00                	add    $0x0,%al
 332:	00 00                	add    %al,(%eax)
 334:	1c 00                	sbb    $0x0,%al
 336:	00 00                	add    %al,(%eax)
 338:	00 03                	add    %al,(%ebx)
 33a:	00 00                	add    %al,(%eax)
 33c:	85 0c 10             	test   %ecx,(%eax,%edx,1)
 33f:	00 09                	add    %cl,(%ecx)
 341:	00 00                	add    %al,(%eax)
 343:	00 41 0e             	add    %al,0xe(%ecx)
 346:	08 85 02 42 0d 05    	or     %al,0x50d4202(%ebp)
 34c:	45                   	inc    %ebp
 34d:	c5 0c 04             	lds    (%esp,%eax,1),%ecx
 350:	04 00                	add    $0x0,%al
 352:	00 00                	add    %al,(%eax)
 354:	10 00                	adc    %al,(%eax)
 356:	00 00                	add    %al,(%eax)
 358:	ff                   	(bad)  
 359:	ff                   	(bad)  
 35a:	ff                   	(bad)  
 35b:	ff 01                	incl   (%ecx)
 35d:	00 01                	add    %al,(%ecx)
 35f:	7c 08                	jl     369 <multiboot_header-0xffd17>
 361:	0c 04                	or     $0x4,%al
 363:	04 88                	add    $0x88,%al
 365:	01 00                	add    %eax,(%eax)
 367:	00 1c 00             	add    %bl,(%eax,%eax,1)
 36a:	00 00                	add    %al,(%eax)
 36c:	54                   	push   %esp
 36d:	03 00                	add    (%eax),%eax
 36f:	00 8e 0c 10 00 2d    	add    %cl,0x2d00100c(%esi)
 375:	00 00                	add    %al,(%eax)
 377:	00 59 0e             	add    %bl,0xe(%ecx)
 37a:	08 85 02 42 0d 05    	or     %al,0x50d4202(%ebp)
 380:	51                   	push   %ecx
 381:	c5 0c 04             	lds    (%esp,%eax,1),%ecx
 384:	04 00                	add    $0x0,%al
 386:	00 00                	add    %al,(%eax)
 388:	20 00                	and    %al,(%eax)
 38a:	00 00                	add    %al,(%eax)
 38c:	54                   	push   %esp
 38d:	03 00                	add    (%eax),%eax
 38f:	00 bb 0c 10 00 3d    	add    %bh,0x3d00100c(%ebx)
 395:	00 00                	add    %al,(%eax)
 397:	00 41 0e             	add    %al,0xe(%ecx)
 39a:	08 85 02 48 0d 05    	or     %al,0x50d4802(%ebp)
 3a0:	44                   	inc    %esp
 3a1:	83 03 6f             	addl   $0x6f,(%ebx)
 3a4:	c5 c3 0c             	(bad)  
 3a7:	04 04                	add    $0x4,%al
 3a9:	00 00                	add    %al,(%eax)
 3ab:	00 1c 00             	add    %bl,(%eax,%eax,1)
 3ae:	00 00                	add    %al,(%eax)
 3b0:	54                   	push   %esp
 3b1:	03 00                	add    (%eax),%eax
 3b3:	00 f8                	add    %bh,%al
 3b5:	0c 10                	or     $0x10,%al
 3b7:	00 17                	add    %dl,(%edi)
 3b9:	00 00                	add    %al,(%eax)
 3bb:	00 41 0e             	add    %al,0xe(%ecx)
 3be:	08 85 02 42 0d 05    	or     %al,0x50d4202(%ebp)
 3c4:	53                   	push   %ebx
 3c5:	c5 0c 04             	lds    (%esp,%eax,1),%ecx
 3c8:	04 00                	add    $0x0,%al
 3ca:	00 00                	add    %al,(%eax)
 3cc:	1c 00                	sbb    $0x0,%al
 3ce:	00 00                	add    %al,(%eax)
 3d0:	54                   	push   %esp
 3d1:	03 00                	add    (%eax),%eax
 3d3:	00 0f                	add    %cl,(%edi)
 3d5:	0d 10 00 13 00       	or     $0x130010,%eax
 3da:	00 00                	add    %al,(%eax)
 3dc:	41                   	inc    %ecx
 3dd:	0e                   	push   %cs
 3de:	08 85 02 47 0d 05    	or     %al,0x50d4702(%ebp)
 3e4:	4a                   	dec    %edx
 3e5:	c5 0c 04             	lds    (%esp,%eax,1),%ecx
 3e8:	04 00                	add    $0x0,%al
 3ea:	00 00                	add    %al,(%eax)
 3ec:	10 00                	adc    %al,(%eax)
 3ee:	00 00                	add    %al,(%eax)
 3f0:	ff                   	(bad)  
 3f1:	ff                   	(bad)  
 3f2:	ff                   	(bad)  
 3f3:	ff 01                	incl   (%ecx)
 3f5:	00 01                	add    %al,(%ecx)
 3f7:	7c 08                	jl     401 <multiboot_header-0xffc7f>
 3f9:	0c 04                	or     $0x4,%al
 3fb:	04 88                	add    $0x88,%al
 3fd:	01 00                	add    %eax,(%eax)
 3ff:	00 20                	add    %ah,(%eax)
 401:	00 00                	add    %al,(%eax)
 403:	00 ec                	add    %ch,%ah
 405:	03 00                	add    (%eax),%eax
 407:	00 22                	add    %ah,(%edx)
 409:	0d 10 00 45 00       	or     $0x450010,%eax
 40e:	00 00                	add    %al,(%eax)
 410:	41                   	inc    %ecx
 411:	0e                   	push   %cs
 412:	08 85 02 42 0d 05    	or     %al,0x50d4202(%ebp)
 418:	44                   	inc    %esp
 419:	83 03 7d             	addl   $0x7d,(%ebx)
 41c:	c5 c3 0c             	(bad)  
 41f:	04 04                	add    $0x4,%al
 421:	00 00                	add    %al,(%eax)
 423:	00 1c 00             	add    %bl,(%eax,%eax,1)
 426:	00 00                	add    %al,(%eax)
 428:	ec                   	in     (%dx),%al
 429:	03 00                	add    (%eax),%eax
 42b:	00 67 0d             	add    %ah,0xd(%edi)
 42e:	10 00                	adc    %al,(%eax)
 430:	17                   	pop    %ss
 431:	00 00                	add    %al,(%eax)
 433:	00 41 0e             	add    %al,0xe(%ecx)
 436:	08 85 02 42 0d 05    	or     %al,0x50d4202(%ebp)
 43c:	53                   	push   %ebx
 43d:	c5 0c 04             	lds    (%esp,%eax,1),%ecx
 440:	04 00                	add    $0x0,%al
 442:	00 00                	add    %al,(%eax)
 444:	10 00                	adc    %al,(%eax)
 446:	00 00                	add    %al,(%eax)
 448:	ff                   	(bad)  
 449:	ff                   	(bad)  
 44a:	ff                   	(bad)  
 44b:	ff 01                	incl   (%ecx)
 44d:	00 01                	add    %al,(%ecx)
 44f:	7c 08                	jl     459 <multiboot_header-0xffc27>
 451:	0c 04                	or     $0x4,%al
 453:	04 88                	add    $0x88,%al
 455:	01 00                	add    %eax,(%eax)
 457:	00 20                	add    %ah,(%eax)
 459:	00 00                	add    %al,(%eax)
 45b:	00 44 04 00          	add    %al,0x0(%esp,%eax,1)
 45f:	00 7e 0d             	add    %bh,0xd(%esi)
 462:	10 00                	adc    %al,(%eax)
 464:	5f                   	pop    %edi
 465:	00 00                	add    %al,(%eax)
 467:	00 41 0e             	add    %al,0xe(%ecx)
 46a:	08 85 02 42 0d 05    	or     %al,0x50d4202(%ebp)
 470:	44                   	inc    %esp
 471:	83 03 02             	addl   $0x2,(%ebx)
 474:	57                   	push   %edi
 475:	c5 c3 0c             	(bad)  
 478:	04 04                	add    $0x4,%al
 47a:	00 00                	add    %al,(%eax)
 47c:	20 00                	and    %al,(%eax)
 47e:	00 00                	add    %al,(%eax)
 480:	44                   	inc    %esp
 481:	04 00                	add    $0x0,%al
 483:	00 dd                	add    %bl,%ch
 485:	0d 10 00 d3 00       	or     $0xd30010,%eax
 48a:	00 00                	add    %al,(%eax)
 48c:	41                   	inc    %ecx
 48d:	0e                   	push   %cs
 48e:	08 85 02 42 0d 05    	or     %al,0x50d4202(%ebp)
 494:	41                   	inc    %ecx
 495:	83 03 02             	addl   $0x2,(%ebx)
 498:	c9                   	leave  
 499:	c3                   	ret    
 49a:	41                   	inc    %ecx
 49b:	c5 0c 04             	lds    (%esp,%eax,1),%ecx
 49e:	04 00                	add    $0x0,%al
 4a0:	1c 00                	sbb    $0x0,%al
 4a2:	00 00                	add    %al,(%eax)
 4a4:	44                   	inc    %esp
 4a5:	04 00                	add    $0x0,%al
 4a7:	00 b0 0e 10 00 2d    	add    %dh,0x2d00100e(%eax)
 4ad:	00 00                	add    %al,(%eax)
 4af:	00 41 0e             	add    %al,0xe(%ecx)
 4b2:	08 85 02 4a 0d 05    	or     %al,0x50d4a02(%ebp)
 4b8:	4f                   	dec    %edi
 4b9:	c5 0c 04             	lds    (%esp,%eax,1),%ecx
 4bc:	04 00                	add    $0x0,%al
 4be:	00 00                	add    %al,(%eax)
 4c0:	20 00                	and    %al,(%eax)
 4c2:	00 00                	add    %al,(%eax)
 4c4:	44                   	inc    %esp
 4c5:	04 00                	add    $0x0,%al
 4c7:	00 dd                	add    %bl,%ch
 4c9:	0e                   	push   %cs
 4ca:	10 00                	adc    %al,(%eax)
 4cc:	24 00                	and    $0x0,%al
 4ce:	00 00                	add    %al,(%eax)
 4d0:	41                   	inc    %ecx
 4d1:	0e                   	push   %cs
 4d2:	08 85 02 42 0d 05    	or     %al,0x50d4202(%ebp)
 4d8:	42                   	inc    %edx
 4d9:	83 03 5e             	addl   $0x5e,(%ebx)
 4dc:	c5 c3 0c             	(bad)  
 4df:	04 04                	add    $0x4,%al
 4e1:	00 00                	add    %al,(%eax)
 4e3:	00 24 00             	add    %ah,(%eax,%eax,1)
 4e6:	00 00                	add    %al,(%eax)
 4e8:	44                   	inc    %esp
 4e9:	04 00                	add    $0x0,%al
 4eb:	00 01                	add    %al,(%ecx)
 4ed:	0f 10 00             	movups (%eax),%xmm0
 4f0:	7e 00                	jle    4f2 <multiboot_header-0xffb8e>
 4f2:	00 00                	add    %al,(%eax)
 4f4:	41                   	inc    %ecx
 4f5:	0e                   	push   %cs
 4f6:	08 85 02 42 0d 05    	or     %al,0x50d4202(%ebp)
 4fc:	42                   	inc    %edx
 4fd:	86 03                	xchg   %al,(%ebx)
 4ff:	83 04 02 72          	addl   $0x72,(%edx,%eax,1)
 503:	c3                   	ret    
 504:	41                   	inc    %ecx
 505:	c6 41 c5 0c          	movb   $0xc,-0x3b(%ecx)
 509:	04 04                	add    $0x4,%al
 50b:	00 28                	add    %ch,(%eax)
 50d:	00 00                	add    %al,(%eax)
 50f:	00 44 04 00          	add    %al,0x0(%esp,%eax,1)
 513:	00 7f 0f             	add    %bh,0xf(%edi)
 516:	10 00                	adc    %al,(%eax)
 518:	6c                   	insb   (%dx),%es:(%edi)
 519:	00 00                	add    %al,(%eax)
 51b:	00 41 0e             	add    %al,0xe(%ecx)
 51e:	08 85 02 42 0d 05    	or     %al,0x50d4202(%ebp)
 524:	46                   	inc    %esi
 525:	87 03                	xchg   %eax,(%ebx)
 527:	86 04 83             	xchg   %al,(%ebx,%eax,4)
 52a:	05 02 5f c3 41       	add    $0x41c35f02,%eax
 52f:	c6 41 c7 41          	movb   $0x41,-0x39(%ecx)
 533:	c5 0c 04             	lds    (%esp,%eax,1),%ecx
 536:	04 00                	add    $0x0,%al
 538:	10 00                	adc    %al,(%eax)
 53a:	00 00                	add    %al,(%eax)
 53c:	ff                   	(bad)  
 53d:	ff                   	(bad)  
 53e:	ff                   	(bad)  
 53f:	ff 01                	incl   (%ecx)
 541:	00 01                	add    %al,(%ecx)
 543:	7c 08                	jl     54d <multiboot_header-0xffb33>
 545:	0c 04                	or     $0x4,%al
 547:	04 88                	add    $0x88,%al
 549:	01 00                	add    %eax,(%eax)
 54b:	00 1c 00             	add    %bl,(%eax,%eax,1)
 54e:	00 00                	add    %al,(%eax)
 550:	38 05 00 00 eb 0f    	cmp    %al,0xfeb0000
 556:	10 00                	adc    %al,(%eax)
 558:	18 00                	sbb    %al,(%eax)
 55a:	00 00                	add    %al,(%eax)
 55c:	41                   	inc    %ecx
 55d:	0e                   	push   %cs
 55e:	08 85 02 44 0d 05    	or     %al,0x50d4402(%ebp)
 564:	52                   	push   %edx
 565:	c5 0c 04             	lds    (%esp,%eax,1),%ecx
 568:	04 00                	add    $0x0,%al
	...

Disassembly of section .debug_loc:

00000000 <.debug_loc>:
   0:	18 00                	sbb    %al,(%eax)
   2:	00 00                	add    %al,(%eax)
   4:	1b 00                	sbb    (%eax),%eax
   6:	00 00                	add    %al,(%eax)
   8:	02 00                	add    (%eax),%al
   a:	30 9f 1b 00 00 00    	xor    %bl,0x1b(%edi)
  10:	51                   	push   %ecx
  11:	00 00                	add    %al,(%eax)
  13:	00 01                	add    %al,(%ecx)
  15:	00 53 51             	add    %dl,0x51(%ebx)
  18:	00 00                	add    %al,(%eax)
  1a:	00 63 00             	add    %ah,0x0(%ebx)
  1d:	00 00                	add    %al,(%eax)
  1f:	03 00                	add    (%eax),%eax
  21:	73 7f                	jae    a2 <multiboot_header-0xfffde>
  23:	9f                   	lahf   
  24:	63 00                	arpl   %ax,(%eax)
  26:	00 00                	add    %al,(%eax)
  28:	6c                   	insb   (%dx),%es:(%edi)
  29:	00 00                	add    %al,(%eax)
  2b:	00 01                	add    %al,(%ecx)
  2d:	00 53 00             	add    %dl,0x0(%ebx)
  30:	00 00                	add    %al,(%eax)
  32:	00 00                	add    %al,(%eax)
  34:	00 00                	add    %al,(%eax)
  36:	00 6f 00             	add    %ch,0x0(%edi)
  39:	00 00                	add    %al,(%eax)
  3b:	7b 00                	jnp    3d <multiboot_header-0x100043>
  3d:	00 00                	add    %al,(%eax)
  3f:	01 00                	add    %eax,(%eax)
  41:	50                   	push   %eax
  42:	7b 00                	jnp    44 <multiboot_header-0x10003c>
  44:	00 00                	add    %al,(%eax)
  46:	88 00                	mov    %al,(%eax)
  48:	00 00                	add    %al,(%eax)
  4a:	01 00                	add    %eax,(%eax)
  4c:	53                   	push   %ebx
  4d:	88 00                	mov    %al,(%eax)
  4f:	00 00                	add    %al,(%eax)
  51:	8b 00                	mov    (%eax),%eax
  53:	00 00                	add    %al,(%eax)
  55:	03 00                	add    (%eax),%eax
  57:	73 01                	jae    5a <multiboot_header-0x100026>
  59:	9f                   	lahf   
  5a:	8b 00                	mov    (%eax),%eax
  5c:	00 00                	add    %al,(%eax)
  5e:	9f                   	lahf   
  5f:	00 00                	add    %al,(%eax)
  61:	00 08                	add    %cl,(%eax)
  63:	00 73 00             	add    %dh,0x0(%ebx)
  66:	76 00                	jbe    68 <multiboot_header-0x100018>
  68:	22 23                	and    (%ebx),%ah
  6a:	01 9f 9f 00 00 00    	add    %ebx,0x9f(%edi)
  70:	ab                   	stos   %eax,%es:(%edi)
  71:	00 00                	add    %al,(%eax)
  73:	00 06                	add    %al,(%esi)
  75:	00 73 00             	add    %dh,0x0(%ebx)
  78:	76 00                	jbe    7a <multiboot_header-0x100006>
  7a:	22 9f 14 01 00 00    	and    0x114(%edi),%bl
  80:	17                   	pop    %ss
  81:	01 00                	add    %eax,(%eax)
  83:	00 03                	add    %al,(%ebx)
  85:	00 73 06             	add    %dh,0x6(%ebx)
  88:	9f                   	lahf   
  89:	17                   	pop    %ss
  8a:	01 00                	add    %eax,(%eax)
  8c:	00 2b                	add    %ch,(%ebx)
  8e:	01 00                	add    %eax,(%eax)
  90:	00 08                	add    %cl,(%eax)
  92:	00 73 00             	add    %dh,0x0(%ebx)
  95:	76 00                	jbe    97 <multiboot_header-0xfffe9>
  97:	22 23                	and    (%ebx),%ah
  99:	06                   	push   %es
  9a:	9f                   	lahf   
  9b:	2b 01                	sub    (%ecx),%eax
  9d:	00 00                	add    %al,(%eax)
  9f:	37                   	aaa    
  a0:	01 00                	add    %eax,(%eax)
  a2:	00 08                	add    %cl,(%eax)
  a4:	00 73 00             	add    %dh,0x0(%ebx)
  a7:	76 00                	jbe    a9 <multiboot_header-0xfffd7>
  a9:	22 23                	and    (%ebx),%ah
  ab:	05 9f 41 01 00       	add    $0x1419f,%eax
  b0:	00 55 01             	add    %dl,0x1(%ebp)
  b3:	00 00                	add    %al,(%eax)
  b5:	08 00                	or     %al,(%eax)
  b7:	73 00                	jae    b9 <multiboot_header-0xfffc7>
  b9:	76 00                	jbe    bb <multiboot_header-0xfffc5>
  bb:	22 23                	and    (%ebx),%ah
  bd:	1f                   	pop    %ds
  be:	9f                   	lahf   
  bf:	55                   	push   %ebp
  c0:	01 00                	add    %eax,(%eax)
  c2:	00 61 01             	add    %ah,0x1(%ecx)
  c5:	00 00                	add    %al,(%eax)
  c7:	08 00                	or     %al,(%eax)
  c9:	73 00                	jae    cb <multiboot_header-0xfffb5>
  cb:	76 00                	jbe    cd <multiboot_header-0xfffb3>
  cd:	22 23                	and    (%ebx),%ah
  cf:	1e                   	push   %ds
  d0:	9f                   	lahf   
  d1:	7b 01                	jnp    d4 <multiboot_header-0xfffac>
  d3:	00 00                	add    %al,(%eax)
  d5:	8f 01                	popl   (%ecx)
  d7:	00 00                	add    %al,(%eax)
  d9:	08 00                	or     %al,(%eax)
  db:	73 00                	jae    dd <multiboot_header-0xfffa3>
  dd:	76 00                	jbe    df <multiboot_header-0xfffa1>
  df:	22 23                	and    (%ebx),%ah
  e1:	28 9f 8f 01 00 00    	sub    %bl,0x18f(%edi)
  e7:	9b                   	fwait
  e8:	01 00                	add    %eax,(%eax)
  ea:	00 08                	add    %cl,(%eax)
  ec:	00 73 00             	add    %dh,0x0(%ebx)
  ef:	76 00                	jbe    f1 <multiboot_header-0xfff8f>
  f1:	22 23                	and    (%ebx),%ah
  f3:	27                   	daa    
  f4:	9f                   	lahf   
	...
  fd:	88 00                	mov    %al,(%eax)
  ff:	00 00                	add    %al,(%eax)
 101:	8b 00                	mov    (%eax),%eax
 103:	00 00                	add    %al,(%eax)
 105:	02 00                	add    (%eax),%al
 107:	30 9f 8b 00 00 00    	xor    %bl,0x8b(%edi)
 10d:	9f                   	lahf   
 10e:	00 00                	add    %al,(%eax)
 110:	00 01                	add    %al,(%ecx)
 112:	00 56 9f             	add    %dl,-0x61(%esi)
 115:	00 00                	add    %al,(%eax)
 117:	00 ab 00 00 00 03    	add    %ch,0x3000000(%ebx)
 11d:	00 76 7f             	add    %dh,0x7f(%esi)
 120:	9f                   	lahf   
 121:	ab                   	stos   %eax,%es:(%edi)
 122:	00 00                	add    %al,(%eax)
 124:	00 ce                	add    %cl,%dh
 126:	00 00                	add    %al,(%eax)
 128:	00 01                	add    %al,(%ecx)
 12a:	00 56 14             	add    %dl,0x14(%esi)
 12d:	01 00                	add    %eax,(%eax)
 12f:	00 17                	add    %dl,(%edi)
 131:	01 00                	add    %eax,(%eax)
 133:	00 02                	add    %al,(%edx)
 135:	00 30                	add    %dh,(%eax)
 137:	9f                   	lahf   
 138:	17                   	pop    %ss
 139:	01 00                	add    %eax,(%eax)
 13b:	00 2b                	add    %ch,(%ebx)
 13d:	01 00                	add    %eax,(%eax)
 13f:	00 01                	add    %al,(%ecx)
 141:	00 56 2b             	add    %dl,0x2b(%esi)
 144:	01 00                	add    %eax,(%eax)
 146:	00 37                	add    %dh,(%edi)
 148:	01 00                	add    %eax,(%eax)
 14a:	00 03                	add    %al,(%ebx)
 14c:	00 76 7f             	add    %dh,0x7f(%esi)
 14f:	9f                   	lahf   
 150:	37                   	aaa    
 151:	01 00                	add    %eax,(%eax)
 153:	00 55 01             	add    %dl,0x1(%ebp)
 156:	00 00                	add    %al,(%eax)
 158:	01 00                	add    %eax,(%eax)
 15a:	56                   	push   %esi
 15b:	55                   	push   %ebp
 15c:	01 00                	add    %eax,(%eax)
 15e:	00 61 01             	add    %ah,0x1(%ecx)
 161:	00 00                	add    %al,(%eax)
 163:	03 00                	add    (%eax),%eax
 165:	76 7f                	jbe    1e6 <multiboot_header-0xffe9a>
 167:	9f                   	lahf   
 168:	61                   	popa   
 169:	01 00                	add    %eax,(%eax)
 16b:	00 6e 01             	add    %ch,0x1(%esi)
 16e:	00 00                	add    %al,(%eax)
 170:	01 00                	add    %eax,(%eax)
 172:	56                   	push   %esi
 173:	78 01                	js     176 <multiboot_header-0xfff0a>
 175:	00 00                	add    %al,(%eax)
 177:	7b 01                	jnp    17a <multiboot_header-0xfff06>
 179:	00 00                	add    %al,(%eax)
 17b:	02 00                	add    (%eax),%al
 17d:	30 9f 7b 01 00 00    	xor    %bl,0x17b(%edi)
 183:	8f 01                	popl   (%ecx)
 185:	00 00                	add    %al,(%eax)
 187:	01 00                	add    %eax,(%eax)
 189:	56                   	push   %esi
 18a:	8f 01                	popl   (%ecx)
 18c:	00 00                	add    %al,(%eax)
 18e:	9b                   	fwait
 18f:	01 00                	add    %eax,(%eax)
 191:	00 03                	add    %al,(%ebx)
 193:	00 76 7f             	add    %dh,0x7f(%esi)
 196:	9f                   	lahf   
 197:	9b                   	fwait
 198:	01 00                	add    %eax,(%eax)
 19a:	00 d0                	add    %dl,%al
 19c:	01 00                	add    %eax,(%eax)
 19e:	00 01                	add    %al,(%ecx)
 1a0:	00 56 00             	add    %dl,0x0(%esi)
 1a3:	00 00                	add    %al,(%eax)
 1a5:	00 00                	add    %al,(%eax)
 1a7:	00 00                	add    %al,(%eax)
 1a9:	00 cd                	add    %cl,%ch
 1ab:	00 00                	add    %al,(%eax)
 1ad:	00 d1                	add    %dl,%cl
 1af:	00 00                	add    %al,(%eax)
 1b1:	00 06                	add    %al,(%esi)
 1b3:	00 70 00             	add    %dh,0x0(%eax)
 1b6:	08 ff                	or     %bh,%bh
 1b8:	1a 9f fc 00 00 00    	sbb    0xfc(%edi),%bl
 1be:	01 01                	add    %eax,(%ecx)
 1c0:	00 00                	add    %al,(%eax)
 1c2:	06                   	push   %es
 1c3:	00 70 00             	add    %dh,0x0(%eax)
 1c6:	08 ff                	or     %bh,%bh
 1c8:	1a 9f 00 00 00 00    	sbb    0x0(%edi),%bl
 1ce:	00 00                	add    %al,(%eax)
 1d0:	00 00                	add    %al,(%eax)
 1d2:	08 02                	or     %al,(%edx)
 1d4:	00 00                	add    %al,(%eax)
 1d6:	0b 02                	or     (%edx),%eax
 1d8:	00 00                	add    %al,(%eax)
 1da:	0a 00                	or     (%eax),%al
 1dc:	70 00                	jo     1de <multiboot_header-0xffea2>
 1de:	08 ff                	or     %bh,%bh
 1e0:	1a 32                	sbb    (%edx),%dh
 1e2:	25 33 1a 9f 00       	and    $0x9f1a33,%eax
 1e7:	00 00                	add    %al,(%eax)
 1e9:	00 00                	add    %al,(%eax)
 1eb:	00 00                	add    %al,(%eax)
 1ed:	00 28                	add    %ch,(%eax)
 1ef:	02 00                	add    (%eax),%al
 1f1:	00 2a                	add    %ch,(%edx)
 1f3:	02 00                	add    (%eax),%al
 1f5:	00 02                	add    %al,(%edx)
 1f7:	00 30                	add    %dh,(%eax)
 1f9:	9f                   	lahf   
 1fa:	2a 02                	sub    (%edx),%al
 1fc:	00 00                	add    %al,(%eax)
 1fe:	2e 02 00             	add    %cs:(%eax),%al
 201:	00 01                	add    %al,(%ecx)
 203:	00 52 2e             	add    %dl,0x2e(%edx)
 206:	02 00                	add    (%eax),%al
 208:	00 34 02             	add    %dh,(%edx,%eax,1)
 20b:	00 00                	add    %al,(%eax)
 20d:	03 00                	add    (%eax),%eax
 20f:	72 7f                	jb     290 <multiboot_header-0xffdf0>
 211:	9f                   	lahf   
 212:	34 02                	xor    $0x2,%al
 214:	00 00                	add    %al,(%eax)
 216:	3e 02 00             	add    %ds:(%eax),%al
 219:	00 01                	add    %al,(%ecx)
 21b:	00 52 00             	add    %dl,0x0(%edx)
 21e:	00 00                	add    %al,(%eax)
 220:	00 00                	add    %al,(%eax)
 222:	00 00                	add    %al,(%eax)
 224:	00 49 02             	add    %cl,0x2(%ecx)
 227:	00 00                	add    %al,(%eax)
 229:	63 02                	arpl   %ax,(%edx)
 22b:	00 00                	add    %al,(%eax)
 22d:	01 00                	add    %eax,(%eax)
 22f:	50                   	push   %eax
	...
 238:	49                   	dec    %ecx
 239:	02 00                	add    (%eax),%al
 23b:	00 4b 02             	add    %cl,0x2(%ebx)
 23e:	00 00                	add    %al,(%eax)
 240:	02 00                	add    (%eax),%al
 242:	30 9f 4b 02 00 00    	xor    %bl,0x24b(%edi)
 248:	67 02 00             	add    (%bx,%si),%al
 24b:	00 01                	add    %al,(%ecx)
 24d:	00 52 00             	add    %dl,0x0(%edx)
 250:	00 00                	add    %al,(%eax)
 252:	00 00                	add    %al,(%eax)
 254:	00 00                	add    %al,(%eax)
 256:	00 14 00             	add    %dl,(%eax,%eax,1)
 259:	00 00                	add    %al,(%eax)
 25b:	44                   	inc    %esp
 25c:	00 00                	add    %al,(%eax)
 25e:	00 02                	add    %al,(%edx)
 260:	00 30                	add    %dh,(%eax)
 262:	9f                   	lahf   
	...
 26b:	44                   	inc    %esp
 26c:	00 00                	add    %al,(%eax)
 26e:	00 72 00             	add    %dh,0x0(%edx)
 271:	00 00                	add    %al,(%eax)
 273:	02 00                	add    (%eax),%al
 275:	30 9f 00 00 00 00    	xor    %bl,0x0(%edi)
 27b:	00 00                	add    %al,(%eax)
 27d:	00 00                	add    %al,(%eax)
 27f:	44                   	inc    %esp
 280:	00 00                	add    %al,(%eax)
 282:	00 72 00             	add    %dh,0x0(%edx)
 285:	00 00                	add    %al,(%eax)
 287:	03 00                	add    (%eax),%eax
 289:	09 cf                	or     %ecx,%edi
 28b:	9f                   	lahf   
	...
 294:	44                   	inc    %esp
 295:	00 00                	add    %al,(%eax)
 297:	00 72 00             	add    %dh,0x0(%edx)
 29a:	00 00                	add    %al,(%eax)
 29c:	03 00                	add    (%eax),%eax
 29e:	09 9a 9f 00 00 00    	or     %ebx,0x9f(%edx)
 2a4:	00 00                	add    %al,(%eax)
 2a6:	00 00                	add    %al,(%eax)
 2a8:	00 44 00 00          	add    %al,0x0(%eax,%eax,1)
 2ac:	00 72 00             	add    %dh,0x0(%edx)
 2af:	00 00                	add    %al,(%eax)
 2b1:	03 00                	add    (%eax),%eax
 2b3:	09 ff                	or     %edi,%edi
 2b5:	9f                   	lahf   
	...
 2be:	44                   	inc    %esp
 2bf:	00 00                	add    %al,(%eax)
 2c1:	00 72 00             	add    %dh,0x0(%edx)
 2c4:	00 00                	add    %al,(%eax)
 2c6:	02 00                	add    (%eax),%al
 2c8:	31 9f 00 00 00 00    	xor    %ebx,0x0(%edi)
 2ce:	00 00                	add    %al,(%eax)
 2d0:	00 00                	add    %al,(%eax)
 2d2:	72 00                	jb     2d4 <multiboot_header-0xffdac>
 2d4:	00 00                	add    %al,(%eax)
 2d6:	a0 00 00 00 02       	mov    0x2000000,%al
 2db:	00 30                	add    %dh,(%eax)
 2dd:	9f                   	lahf   
	...
 2e6:	72 00                	jb     2e8 <multiboot_header-0xffd98>
 2e8:	00 00                	add    %al,(%eax)
 2ea:	a0 00 00 00 03       	mov    0x3000000,%al
 2ef:	00 09                	add    %cl,(%ecx)
 2f1:	cf                   	iret   
 2f2:	9f                   	lahf   
	...
 2fb:	72 00                	jb     2fd <multiboot_header-0xffd83>
 2fd:	00 00                	add    %al,(%eax)
 2ff:	a0 00 00 00 03       	mov    0x3000000,%al
 304:	00 09                	add    %cl,(%ecx)
 306:	92                   	xchg   %eax,%edx
 307:	9f                   	lahf   
	...
 310:	72 00                	jb     312 <multiboot_header-0xffd6e>
 312:	00 00                	add    %al,(%eax)
 314:	a0 00 00 00 03       	mov    0x3000000,%al
 319:	00 09                	add    %cl,(%ecx)
 31b:	ff 9f 00 00 00 00    	lcall  *0x0(%edi)
 321:	00 00                	add    %al,(%eax)
 323:	00 00                	add    %al,(%eax)
 325:	72 00                	jb     327 <multiboot_header-0xffd59>
 327:	00 00                	add    %al,(%eax)
 329:	a0 00 00 00 02       	mov    0x2000000,%al
 32e:	00 32                	add    %dh,(%edx)
 330:	9f                   	lahf   
	...
 339:	15 00 00 00 26       	adc    $0x26000000,%eax
 33e:	00 00                	add    %al,(%eax)
 340:	00 06                	add    %al,(%esi)
 342:	00 70 00             	add    %dh,0x0(%eax)
 345:	08 ff                	or     %bh,%bh
 347:	1a 9f 00 00 00 00    	sbb    0x0(%edi),%bl
 34d:	00 00                	add    %al,(%eax)
 34f:	00 00                	add    %al,(%eax)
 351:	30 00                	xor    %al,(%eax)
 353:	00 00                	add    %al,(%eax)
 355:	37                   	aaa    
 356:	00 00                	add    %al,(%eax)
 358:	00 06                	add    %al,(%esi)
 35a:	00 70 00             	add    %dh,0x0(%eax)
 35d:	08 ff                	or     %bh,%bh
 35f:	1a 9f 37 00 00 00    	sbb    0x37(%edi),%bl
 365:	3d 00 00 00 06       	cmp    $0x6000000,%eax
 36a:	00 73 00             	add    %dh,0x0(%ebx)
 36d:	08 ff                	or     %bh,%bh
 36f:	1a 9f 00 00 00 00    	sbb    0x0(%edi),%bl
 375:	00 00                	add    %al,(%eax)
 377:	00 00                	add    %al,(%eax)
 379:	3a 00                	cmp    (%eax),%al
 37b:	00 00                	add    %al,(%eax)
 37d:	3e 00 00             	add    %al,%ds:(%eax)
 380:	00 06                	add    %al,(%esi)
 382:	00 70 00             	add    %dh,0x0(%eax)
 385:	08 ff                	or     %bh,%bh
 387:	1a 9f 3e 00 00 00    	sbb    0x3e(%edi),%bl
 38d:	76 00                	jbe    38f <multiboot_header-0xffcf1>
 38f:	00 00                	add    %al,(%eax)
 391:	06                   	push   %es
 392:	00 77 00             	add    %dh,0x0(%edi)
 395:	08 ff                	or     %bh,%bh
 397:	1a 9f 76 00 00 00    	sbb    0x76(%edi),%bl
 39d:	94                   	xchg   %eax,%esp
 39e:	00 00                	add    %al,(%eax)
 3a0:	00 08                	add    %cl,(%eax)
 3a2:	00 77 00             	add    %dh,0x0(%edi)
 3a5:	32 21                	xor    (%ecx),%ah
 3a7:	08 ff                	or     %bh,%bh
 3a9:	1a 9f 00 00 00 00    	sbb    0x0(%edi),%bl
 3af:	00 00                	add    %al,(%eax)
 3b1:	00 00                	add    %al,(%eax)
 3b3:	99                   	cltd   
 3b4:	00 00                	add    %al,(%eax)
 3b6:	00 a8 00 00 00 02    	add    %ch,0x2000000(%eax)
 3bc:	00 30                	add    %dh,(%eax)
 3be:	9f                   	lahf   
 3bf:	a8 00                	test   $0x0,%al
 3c1:	00 00                	add    %al,(%eax)
 3c3:	af                   	scas   %es:(%edi),%eax
 3c4:	00 00                	add    %al,(%eax)
 3c6:	00 07                	add    %al,(%edi)
 3c8:	00 73 00             	add    %dh,0x0(%ebx)
 3cb:	91                   	xchg   %eax,%ecx
 3cc:	00 06                	add    %al,(%esi)
 3ce:	1c 9f                	sbb    $0x9f,%al
 3d0:	af                   	scas   %es:(%edi),%eax
 3d1:	00 00                	add    %al,(%eax)
 3d3:	00 be 00 00 00 08    	add    %bh,0x8000000(%esi)
 3d9:	00 91 00 06 20 73    	add    %dl,0x73200600(%ecx)
 3df:	00 22                	add    %ah,(%edx)
 3e1:	9f                   	lahf   
 3e2:	c3                   	ret    
 3e3:	00 00                	add    %al,(%eax)
 3e5:	00 c9                	add    %cl,%cl
 3e7:	00 00                	add    %al,(%eax)
 3e9:	00 07                	add    %al,(%edi)
 3eb:	00 73 00             	add    %dh,0x0(%ebx)
 3ee:	91                   	xchg   %eax,%ecx
 3ef:	00 06                	add    %al,(%esi)
 3f1:	1c 9f                	sbb    $0x9f,%al
	...
 3fb:	12 02                	adc    (%edx),%al
 3fd:	00 00                	add    %al,(%eax)
 3ff:	7d 02                	jge    403 <multiboot_header-0xffc7d>
 401:	00 00                	add    %al,(%eax)
 403:	01 00                	add    %eax,(%eax)
 405:	56                   	push   %esi
	...
 40e:	3b 02                	cmp    (%edx),%eax
 410:	00 00                	add    %al,(%eax)
 412:	3f                   	aas    
 413:	02 00                	add    (%eax),%al
 415:	00 05 00 91 00 06    	add    %al,0x6009100
 41b:	23 28                	and    (%eax),%ebp
 41d:	3f                   	aas    
 41e:	02 00                	add    (%eax),%al
 420:	00 43 02             	add    %al,0x2(%ebx)
 423:	00 00                	add    %al,(%eax)
 425:	01 00                	add    %eax,(%eax)
 427:	50                   	push   %eax
	...
 430:	43                   	inc    %ebx
 431:	00 00                	add    %al,(%eax)
 433:	00 47 00             	add    %al,0x0(%edi)
 436:	00 00                	add    %al,(%eax)
 438:	01 00                	add    %eax,(%eax)
 43a:	50                   	push   %eax
 43b:	47                   	inc    %edi
 43c:	00 00                	add    %al,(%eax)
 43e:	00 50 00             	add    %dl,0x0(%eax)
 441:	00 00                	add    %al,(%eax)
 443:	01 00                	add    %eax,(%eax)
 445:	53                   	push   %ebx
 446:	50                   	push   %eax
 447:	00 00                	add    %al,(%eax)
 449:	00 6a 00             	add    %ch,0x0(%edx)
 44c:	00 00                	add    %al,(%eax)
 44e:	0a 00                	or     (%eax),%al
 450:	0c dc                	or     $0xdc,%al
 452:	34 12                	xor    $0x12,%al
 454:	00 91 00 06 1b 9f    	add    %dl,-0x60e4fa00(%ecx)
	...
 462:	11 00                	adc    %eax,(%eax)
 464:	00 00                	add    %al,(%eax)
 466:	2b 00                	sub    (%eax),%eax
 468:	00 00                	add    %al,(%eax)
 46a:	01 00                	add    %eax,(%eax)
 46c:	53                   	push   %ebx
 46d:	2b 00                	sub    (%eax),%eax
 46f:	00 00                	add    %al,(%eax)
 471:	38 00                	cmp    %al,(%eax)
 473:	00 00                	add    %al,(%eax)
 475:	09 00                	or     %eax,(%eax)
 477:	73 00                	jae    479 <multiboot_header-0xffc07>
 479:	03 40 10             	add    0x10(%eax),%eax
 47c:	10 00                	adc    %al,(%eax)
 47e:	1c 9f                	sbb    $0x9f,%al
	...
 488:	24 00                	and    $0x0,%al
 48a:	00 00                	add    %al,(%eax)
 48c:	31 00                	xor    %eax,(%eax)
 48e:	00 00                	add    %al,(%eax)
 490:	01 00                	add    %eax,(%eax)
 492:	53                   	push   %ebx
	...
 49b:	c8 00 00 00          	enter  $0x0,$0x0
 49f:	d1 00                	roll   (%eax)
 4a1:	00 00                	add    %al,(%eax)
 4a3:	1d 00 03 e4 1a       	sbb    $0x1ae40300,%eax
 4a8:	11 00                	adc    %eax,(%eax)
 4aa:	94                   	xchg   %eax,%esp
 4ab:	01 08                	add    %ecx,(%eax)
 4ad:	ff 1a                	lcall  *(%edx)
 4af:	08 50 1e             	or     %dl,0x1e(%eax)
 4b2:	73 00                	jae    4b4 <multiboot_header-0xffbcc>
 4b4:	08 ff                	or     %bh,%bh
 4b6:	1a 22                	sbb    (%edx),%ah
 4b8:	31 24 03             	xor    %esp,(%ebx,%eax,1)
 4bb:	5c                   	pop    %esp
 4bc:	18 10                	sbb    %dl,(%eax)
 4be:	00 06                	add    %al,(%esi)
 4c0:	22 9f d1 00 00 00    	and    0xd1(%edi),%bl
 4c6:	d5 00                	aad    $0x0
 4c8:	00 00                	add    %al,(%eax)
 4ca:	1d 00 03 e4 1a       	sbb    $0x1ae40300,%eax
 4cf:	11 00                	adc    %eax,(%eax)
 4d1:	94                   	xchg   %eax,%esp
 4d2:	01 08                	add    %ecx,(%eax)
 4d4:	ff 1a                	lcall  *(%edx)
 4d6:	08 50 1e             	or     %dl,0x1e(%eax)
 4d9:	72 7f                	jb     55a <multiboot_header-0xffb26>
 4db:	08 ff                	or     %bh,%bh
 4dd:	1a 22                	sbb    (%edx),%ah
 4df:	31 24 03             	xor    %esp,(%ebx,%eax,1)
 4e2:	5c                   	pop    %esp
 4e3:	18 10                	sbb    %dl,(%eax)
 4e5:	00 06                	add    %al,(%esi)
 4e7:	22 9f 00 00 00 00    	and    0x0(%edi),%bl
 4ed:	00 00                	add    %al,(%eax)
 4ef:	00 00                	add    %al,(%eax)
 4f1:	02 01                	add    (%ecx),%al
 4f3:	00 00                	add    %al,(%eax)
 4f5:	2b 01                	sub    (%ecx),%eax
 4f7:	00 00                	add    %al,(%eax)
 4f9:	01 00                	add    %eax,(%eax)
 4fb:	50                   	push   %eax
	...
 504:	32 01                	xor    (%ecx),%al
 506:	00 00                	add    %al,(%eax)
 508:	3d 01 00 00 02       	cmp    $0x2000001,%eax
 50d:	00 30                	add    %dh,(%eax)
 50f:	9f                   	lahf   
 510:	3d 01 00 00 5e       	cmp    $0x5e000001,%eax
 515:	01 00                	add    %eax,(%eax)
 517:	00 01                	add    %al,(%ecx)
 519:	00 50 00             	add    %dl,0x0(%eax)
 51c:	00 00                	add    %al,(%eax)
 51e:	00 00                	add    %al,(%eax)
 520:	00 00                	add    %al,(%eax)
 522:	00 62 01             	add    %ah,0x1(%edx)
 525:	00 00                	add    %al,(%eax)
 527:	67 01 00             	add    %eax,(%bx,%si)
 52a:	00 02                	add    %al,(%edx)
 52c:	00 30                	add    %dh,(%eax)
 52e:	9f                   	lahf   
 52f:	67 01 00             	add    %eax,(%bx,%si)
 532:	00 68 01             	add    %ch,0x1(%eax)
 535:	00 00                	add    %al,(%eax)
 537:	07                   	pop    %es
 538:	00 73 00             	add    %dh,0x0(%ebx)
 53b:	91                   	xchg   %eax,%ecx
 53c:	00 06                	add    %al,(%esi)
 53e:	1c 9f                	sbb    $0x9f,%al
 540:	68 01 00 00 70       	push   $0x70000001
 545:	01 00                	add    %eax,(%eax)
 547:	00 08                	add    %cl,(%eax)
 549:	00 91 00 06 20 73    	add    %dl,0x73200600(%ecx)
 54f:	00 22                	add    %ah,(%edx)
 551:	9f                   	lahf   
 552:	70 01                	jo     555 <multiboot_header-0xffb2b>
 554:	00 00                	add    %al,(%eax)
 556:	7e 01                	jle    559 <multiboot_header-0xffb27>
 558:	00 00                	add    %al,(%eax)
 55a:	07                   	pop    %es
 55b:	00 73 00             	add    %dh,0x0(%ebx)
 55e:	91                   	xchg   %eax,%ecx
 55f:	00 06                	add    %al,(%esi)
 561:	1c 9f                	sbb    $0x9f,%al
 563:	7e 01                	jle    566 <multiboot_header-0xffb1a>
 565:	00 00                	add    %al,(%eax)
 567:	81 01 00 00 08 00    	addl   $0x80000,(%ecx)
 56d:	91                   	xchg   %eax,%ecx
 56e:	00 06                	add    %al,(%esi)
 570:	20 73 00             	and    %dh,0x0(%ebx)
 573:	22 9f 00 00 00 00    	and    0x0(%edi),%bl
 579:	00 00                	add    %al,(%eax)
 57b:	00 00                	add    %al,(%eax)
 57d:	a8 01                	test   $0x1,%al
 57f:	00 00                	add    %al,(%eax)
 581:	ab                   	stos   %eax,%es:(%edi)
 582:	01 00                	add    %eax,(%eax)
 584:	00 05 00 70 00 3f    	add    %al,0x3f007000
 58a:	1a 9f ab 01 00 00    	sbb    0x1ab(%edi),%bl
 590:	c0 01 00             	rolb   $0x0,(%ecx)
 593:	00 01                	add    %al,(%ecx)
 595:	00 50 c0             	add    %dl,-0x40(%eax)
 598:	01 00                	add    %eax,(%eax)
 59a:	00 c8                	add    %cl,%al
 59c:	01 00                	add    %eax,(%eax)
 59e:	00 0c 00             	add    %cl,(%eax,%eax,1)
 5a1:	91                   	xchg   %eax,%ecx
 5a2:	00 06                	add    %al,(%esi)
 5a4:	76 00                	jbe    5a6 <multiboot_header-0xffada>
 5a6:	08 ff                	or     %bh,%bh
 5a8:	1a 25 3f 1a 9f c8    	sbb    0xc89f1a3f,%ah
 5ae:	01 00                	add    %eax,(%eax)
 5b0:	00 ce                	add    %cl,%dh
 5b2:	01 00                	add    %eax,(%eax)
 5b4:	00 01                	add    %al,(%ecx)
 5b6:	00 50 ce             	add    %dl,-0x32(%eax)
 5b9:	01 00                	add    %eax,(%eax)
 5bb:	00 dc                	add    %bl,%ah
 5bd:	01 00                	add    %eax,(%eax)
 5bf:	00 0c 00             	add    %cl,(%eax,%eax,1)
 5c2:	91                   	xchg   %eax,%ecx
 5c3:	00 06                	add    %al,(%esi)
 5c5:	76 00                	jbe    5c7 <multiboot_header-0xffab9>
 5c7:	08 ff                	or     %bh,%bh
 5c9:	1a 25 3f 1a 9f e3    	sbb    0xe39f1a3f,%ah
 5cf:	01 00                	add    %eax,(%eax)
 5d1:	00 eb                	add    %ch,%bl
 5d3:	01 00                	add    %eax,(%eax)
 5d5:	00 01                	add    %al,(%ecx)
 5d7:	00 50 eb             	add    %dl,-0x15(%eax)
 5da:	01 00                	add    %eax,(%eax)
 5dc:	00 ee                	add    %ch,%dh
 5de:	01 00                	add    %eax,(%eax)
 5e0:	00 04 00             	add    %al,(%eax,%eax,1)
 5e3:	70 a9                	jo     58e <multiboot_header-0xffaf2>
 5e5:	7f 9f                	jg     586 <multiboot_header-0xffafa>
 5e7:	ee                   	out    %al,(%dx)
 5e8:	01 00                	add    %eax,(%eax)
 5ea:	00 f0                	add    %dh,%al
 5ec:	01 00                	add    %eax,(%eax)
 5ee:	00 06                	add    %al,(%esi)
 5f0:	00 91 00 06 3f 1a    	add    %dl,0x1a3f0600(%ecx)
 5f6:	9f                   	lahf   
 5f7:	f0 01 00             	lock add %eax,(%eax)
 5fa:	00 f3                	add    %dh,%bl
 5fc:	01 00                	add    %eax,(%eax)
 5fe:	00 01                	add    %al,(%ecx)
 600:	00 50 f3             	add    %dl,-0xd(%eax)
 603:	01 00                	add    %eax,(%eax)
 605:	00 f6                	add    %dh,%dh
 607:	01 00                	add    %eax,(%eax)
 609:	00 06                	add    %al,(%esi)
 60b:	00 91 00 06 3f 1a    	add    %dl,0x1a3f0600(%ecx)
 611:	9f                   	lahf   
 612:	f6 01 00             	testb  $0x0,(%ecx)
 615:	00 fa                	add    %bh,%dl
 617:	01 00                	add    %eax,(%eax)
 619:	00 05 00 73 00 3f    	add    %al,0x3f007300
 61f:	1a 9f 00 00 00 00    	sbb    0x0(%edi),%bl
 625:	00 00                	add    %al,(%eax)
 627:	00 00                	add    %al,(%eax)
 629:	9d                   	popf   
 62a:	01 00                	add    %eax,(%eax)
 62c:	00 a2 01 00 00 02    	add    %ah,0x2000001(%edx)
 632:	00 31                	add    %dh,(%ecx)
 634:	9f                   	lahf   
 635:	bd 01 00 00 d9       	mov    $0xd9000001,%ebp
 63a:	01 00                	add    %eax,(%eax)
 63c:	00 02                	add    %al,(%edx)
 63e:	00 30                	add    %dh,(%eax)
 640:	9f                   	lahf   
	...
 649:	9d                   	popf   
 64a:	01 00                	add    %eax,(%eax)
 64c:	00 a2 01 00 00 02    	add    %ah,0x2000001(%edx)
 652:	00 4c 9f a2          	add    %cl,-0x5e(%edi,%ebx,4)
 656:	01 00                	add    %eax,(%eax)
 658:	00 d9                	add    %bl,%cl
 65a:	01 00                	add    %eax,(%eax)
 65c:	00 01                	add    %al,(%ecx)
 65e:	00 56 d9             	add    %dl,-0x27(%esi)
 661:	01 00                	add    %eax,(%eax)
 663:	00 dc                	add    %bl,%ah
 665:	01 00                	add    %eax,(%eax)
 667:	00 03                	add    %al,(%ebx)
 669:	00 76 7c             	add    %dh,0x7c(%esi)
 66c:	9f                   	lahf   
 66d:	dc 01                	faddl  (%ecx)
 66f:	00 00                	add    %al,(%eax)
 671:	fb                   	sti    
 672:	01 00                	add    %eax,(%eax)
 674:	00 01                	add    %al,(%ecx)
 676:	00 56 00             	add    %dl,0x0(%esi)
 679:	00 00                	add    %al,(%eax)
 67b:	00 00                	add    %al,(%eax)
 67d:	00 00                	add    %al,(%eax)
 67f:	00 1d 02 00 00 24    	add    %bl,0x24000002
 685:	02 00                	add    (%eax),%al
 687:	00 02                	add    %al,(%edx)
 689:	00 91 00 24 02 00    	add    %dl,0x22400(%ecx)
 68f:	00 2b                	add    %ch,(%ebx)
 691:	02 00                	add    (%eax),%al
 693:	00 01                	add    %al,(%ecx)
 695:	00 50 32             	add    %dl,0x32(%eax)
 698:	02 00                	add    (%eax),%al
 69a:	00 44 02 00          	add    %al,0x0(%edx,%eax,1)
 69e:	00 01                	add    %al,(%ecx)
 6a0:	00 50 00             	add    %dl,0x0(%eax)
 6a3:	00 00                	add    %al,(%eax)
 6a5:	00 00                	add    %al,(%eax)
 6a7:	00 00                	add    %al,(%eax)
 6a9:	00 1d 02 00 00 24    	add    %bl,0x24000002
 6af:	02 00                	add    (%eax),%al
 6b1:	00 02                	add    %al,(%edx)
 6b3:	00 30                	add    %dh,(%eax)
 6b5:	9f                   	lahf   
 6b6:	24 02                	and    $0x2,%al
 6b8:	00 00                	add    %al,(%eax)
 6ba:	3d 02 00 00 01       	cmp    $0x1000002,%eax
 6bf:	00 51 3d             	add    %dl,0x3d(%ecx)
 6c2:	02 00                	add    (%eax),%al
 6c4:	00 47 02             	add    %al,0x2(%edi)
 6c7:	00 00                	add    %al,(%eax)
 6c9:	03 00                	add    (%eax),%eax
 6cb:	71 7f                	jno    74c <multiboot_header-0xff934>
 6cd:	9f                   	lahf   
 6ce:	47                   	inc    %edi
 6cf:	02 00                	add    (%eax),%al
 6d1:	00 4b 02             	add    %cl,0x2(%ebx)
 6d4:	00 00                	add    %al,(%eax)
 6d6:	07                   	pop    %es
 6d7:	00 70 00             	add    %dh,0x0(%eax)
 6da:	20 71 00             	and    %dh,0x0(%ecx)
 6dd:	22 9f 4b 02 00 00    	and    0x24b(%edi),%bl
 6e3:	4c                   	dec    %esp
 6e4:	02 00                	add    (%eax),%al
 6e6:	00 08                	add    %cl,(%eax)
 6e8:	00 71 00             	add    %dh,0x0(%ecx)
 6eb:	70 00                	jo     6ed <multiboot_header-0xff993>
 6ed:	1c 32                	sbb    $0x32,%al
 6ef:	1c 9f                	sbb    $0x9f,%al
 6f1:	4c                   	dec    %esp
 6f2:	02 00                	add    (%eax),%al
 6f4:	00 61 02             	add    %ah,0x2(%ecx)
 6f7:	00 00                	add    %al,(%eax)
 6f9:	07                   	pop    %es
 6fa:	00 70 00             	add    %dh,0x0(%eax)
 6fd:	20 71 00             	and    %dh,0x0(%ecx)
 700:	22 9f 00 00 00 00    	and    0x0(%edi),%bl
 706:	00 00                	add    %al,(%eax)
 708:	00 00                	add    %al,(%eax)
 70a:	42                   	inc    %edx
 70b:	02 00                	add    (%eax),%al
 70d:	00 47 02             	add    %al,0x2(%edi)
 710:	00 00                	add    %al,(%eax)
 712:	02 00                	add    (%eax),%al
 714:	30 9f 47 02 00 00    	xor    %bl,0x247(%edi)
 71a:	61                   	popa   
 71b:	02 00                	add    (%eax),%al
 71d:	00 01                	add    %al,(%ecx)
 71f:	00 50 00             	add    %dl,0x0(%eax)
	...
 72a:	00 00                	add    %al,(%eax)
 72c:	00 16                	add    %dl,(%esi)
 72e:	00 00                	add    %al,(%eax)
 730:	00 02                	add    %al,(%edx)
 732:	00 91 00 16 00 00    	add    %dl,0x1600(%ecx)
 738:	00 18                	add    %bl,(%eax)
 73a:	00 00                	add    %al,(%eax)
 73c:	00 01                	add    %al,(%ecx)
 73e:	00 50 00             	add    %dl,0x0(%eax)
 741:	00 00                	add    %al,(%eax)
 743:	00 00                	add    %al,(%eax)
 745:	00 00                	add    %al,(%eax)
 747:	00 08                	add    %cl,(%eax)
 749:	00 00                	add    %al,(%eax)
 74b:	00 16                	add    %dl,(%esi)
 74d:	00 00                	add    %al,(%eax)
 74f:	00 02                	add    %al,(%edx)
 751:	00 91 00 16 00 00    	add    %dl,0x1600(%ecx)
 757:	00 18                	add    %bl,(%eax)
 759:	00 00                	add    %al,(%eax)
 75b:	00 01                	add    %al,(%ecx)
 75d:	00 50 00             	add    %dl,0x0(%eax)
 760:	00 00                	add    %al,(%eax)
 762:	00 00                	add    %al,(%eax)
 764:	00 00                	add    %al,(%eax)
 766:	00 08                	add    %cl,(%eax)
 768:	00 00                	add    %al,(%eax)
 76a:	00 0b                	add    %cl,(%ebx)
 76c:	00 00                	add    %al,(%eax)
 76e:	00 02                	add    %al,(%edx)
 770:	00 30                	add    %dh,(%eax)
 772:	9f                   	lahf   
 773:	0b 00                	or     (%eax),%eax
 775:	00 00                	add    %al,(%eax)
 777:	18 00                	sbb    %al,(%eax)
 779:	00 00                	add    %al,(%eax)
 77b:	01 00                	add    %eax,(%eax)
 77d:	52                   	push   %edx
	...

Disassembly of section .debug_ranges:

00000000 <.debug_ranges>:
   0:	07                   	pop    %es
   1:	00 00                	add    %al,(%eax)
   3:	00 09                	add    %cl,(%ecx)
   5:	00 00                	add    %al,(%eax)
   7:	00 18                	add    %bl,(%eax)
   9:	00 00                	add    %al,(%eax)
   b:	00 68 00             	add    %ch,0x0(%eax)
	...
  16:	00 00                	add    %al,(%eax)
  18:	14 00                	adc    $0x0,%al
  1a:	00 00                	add    %al,(%eax)
  1c:	1d 00 00 00 1f       	sbb    $0x1f000000,%eax
  21:	00 00                	add    %al,(%eax)
  23:	00 44 00 00          	add    %al,0x0(%eax,%eax,1)
	...
  2f:	00 01                	add    %al,(%ecx)
  31:	00 00                	add    %al,(%eax)
  33:	00 03                	add    %al,(%ebx)
  35:	00 00                	add    %al,(%eax)
  37:	00 0b                	add    %cl,(%ebx)
  39:	00 00                	add    %al,(%eax)
  3b:	00 16                	add    %dl,(%esi)
	...
