
k:     file format elf32-i386


Disassembly of section .text:

00100080 <multiboot_header>:
  100080:	02 b0 ad 1b 03 00    	add    0x31bad(%eax),%dh
  100086:	00 00                	add    %al,(%eax)
  100088:	fb                   	sti    
  100089:	4f                   	dec    %edi
  10008a:	52                   	push   %edx
  10008b:	e4 55                	in     $0x55,%al

0010008c <k_main>:
  10008c:	55                   	push   %ebp
  10008d:	89 e5                	mov    %esp,%ebp
  10008f:	83 ec 08             	sub    $0x8,%esp
  100092:	e8 61 03 00 00       	call   1003f8 <prepare>
  100097:	e8 8e 02 00 00       	call   10032a <init_gdt>
  10009c:	e8 36 08 00 00       	call   1008d7 <init_idt>
  1000a1:	e8 60 09 00 00       	call   100a06 <irq_install>
  1000a6:	fb                   	sti    
  1000a7:	e8 4c 0c 00 00       	call   100cf8 <timer_install>
  1000ac:	e8 b6 0c 00 00       	call   100d67 <keyboard_install>
  1000b1:	cd 11                	int    $0x11
  1000b3:	cd 20                	int    $0x20
  1000b5:	cd 21                	int    $0x21
  1000b7:	eb f8                	jmp    1000b1 <k_main+0x25>

001000b9 <k_entry>:
  1000b9:	53                   	push   %ebx
  1000ba:	50                   	push   %eax
  1000bb:	e8 cc ff ff ff       	call   10008c <k_main>
  1000c0:	eb fe                	jmp    1000c0 <k_entry+0x7>

001000c2 <libvga_set_palette>:
  1000c2:	55                   	push   %ebp
  1000c3:	89 e5                	mov    %esp,%ebp
  1000c5:	56                   	push   %esi
  1000c6:	53                   	push   %ebx
  1000c7:	51                   	push   %ecx
  1000c8:	51                   	push   %ecx
  1000c9:	31 db                	xor    %ebx,%ebx
  1000cb:	6a 00                	push   $0x0
  1000cd:	68 c8 03 00 00       	push   $0x3c8
  1000d2:	8b 75 08             	mov    0x8(%ebp),%esi
  1000d5:	e8 9f 0b 00 00       	call   100c79 <outb>
  1000da:	83 c4 10             	add    $0x10,%esp
  1000dd:	3b 5d 0c             	cmp    0xc(%ebp),%ebx
  1000e0:	74 48                	je     10012a <libvga_set_palette+0x68>
  1000e2:	50                   	push   %eax
  1000e3:	50                   	push   %eax
  1000e4:	8b 04 9e             	mov    (%esi,%ebx,4),%eax
  1000e7:	c1 e8 12             	shr    $0x12,%eax
  1000ea:	0f b6 c0             	movzbl %al,%eax
  1000ed:	50                   	push   %eax
  1000ee:	68 c9 03 00 00       	push   $0x3c9
  1000f3:	e8 81 0b 00 00       	call   100c79 <outb>
  1000f8:	8b 04 9e             	mov    (%esi,%ebx,4),%eax
  1000fb:	5a                   	pop    %edx
  1000fc:	59                   	pop    %ecx
  1000fd:	c1 e8 0a             	shr    $0xa,%eax
  100100:	0f b6 c0             	movzbl %al,%eax
  100103:	50                   	push   %eax
  100104:	68 c9 03 00 00       	push   $0x3c9
  100109:	e8 6b 0b 00 00       	call   100c79 <outb>
  10010e:	58                   	pop    %eax
  10010f:	8b 04 9e             	mov    (%esi,%ebx,4),%eax
  100112:	43                   	inc    %ebx
  100113:	5a                   	pop    %edx
  100114:	c1 e8 02             	shr    $0x2,%eax
  100117:	0f b6 c0             	movzbl %al,%eax
  10011a:	50                   	push   %eax
  10011b:	68 c9 03 00 00       	push   $0x3c9
  100120:	e8 54 0b 00 00       	call   100c79 <outb>
  100125:	83 c4 10             	add    $0x10,%esp
  100128:	eb b3                	jmp    1000dd <libvga_set_palette+0x1b>
  10012a:	8d 65 f8             	lea    -0x8(%ebp),%esp
  10012d:	5b                   	pop    %ebx
  10012e:	5e                   	pop    %esi
  10012f:	5d                   	pop    %ebp
  100130:	c3                   	ret    

00100131 <libvga_write_regs>:
  100131:	55                   	push   %ebp
  100132:	89 e5                	mov    %esp,%ebp
  100134:	56                   	push   %esi
  100135:	53                   	push   %ebx
  100136:	89 c3                	mov    %eax,%ebx
  100138:	51                   	push   %ecx
  100139:	51                   	push   %ecx
  10013a:	0f b6 00             	movzbl (%eax),%eax
  10013d:	31 f6                	xor    %esi,%esi
  10013f:	50                   	push   %eax
  100140:	68 c2 03 00 00       	push   $0x3c2
  100145:	e8 2f 0b 00 00       	call   100c79 <outb>
  10014a:	83 c4 10             	add    $0x10,%esp
  10014d:	50                   	push   %eax
  10014e:	50                   	push   %eax
  10014f:	56                   	push   %esi
  100150:	68 c4 03 00 00       	push   $0x3c4
  100155:	e8 1f 0b 00 00       	call   100c79 <outb>
  10015a:	58                   	pop    %eax
  10015b:	0f b6 44 33 01       	movzbl 0x1(%ebx,%esi,1),%eax
  100160:	46                   	inc    %esi
  100161:	5a                   	pop    %edx
  100162:	50                   	push   %eax
  100163:	68 c5 03 00 00       	push   $0x3c5
  100168:	e8 0c 0b 00 00       	call   100c79 <outb>
  10016d:	83 c4 10             	add    $0x10,%esp
  100170:	83 fe 05             	cmp    $0x5,%esi
  100173:	75 d8                	jne    10014d <libvga_write_regs+0x1c>
  100175:	51                   	push   %ecx
  100176:	51                   	push   %ecx
  100177:	6a 03                	push   $0x3
  100179:	68 d4 03 00 00       	push   $0x3d4
  10017e:	e8 f6 0a 00 00       	call   100c79 <outb>
  100183:	c7 04 24 d5 03 00 00 	movl   $0x3d5,(%esp)
  10018a:	e8 f6 0a 00 00       	call   100c85 <inb>
  10018f:	5e                   	pop    %esi
  100190:	83 c8 80             	or     $0xffffff80,%eax
  100193:	5a                   	pop    %edx
  100194:	0f b6 c0             	movzbl %al,%eax
  100197:	50                   	push   %eax
  100198:	68 d5 03 00 00       	push   $0x3d5
  10019d:	e8 d7 0a 00 00       	call   100c79 <outb>
  1001a2:	59                   	pop    %ecx
  1001a3:	5e                   	pop    %esi
  1001a4:	6a 11                	push   $0x11
  1001a6:	68 d4 03 00 00       	push   $0x3d4
  1001ab:	31 f6                	xor    %esi,%esi
  1001ad:	e8 c7 0a 00 00       	call   100c79 <outb>
  1001b2:	c7 04 24 d5 03 00 00 	movl   $0x3d5,(%esp)
  1001b9:	e8 c7 0a 00 00       	call   100c85 <inb>
  1001be:	5a                   	pop    %edx
  1001bf:	59                   	pop    %ecx
  1001c0:	83 e0 7f             	and    $0x7f,%eax
  1001c3:	50                   	push   %eax
  1001c4:	68 d5 03 00 00       	push   $0x3d5
  1001c9:	e8 ab 0a 00 00       	call   100c79 <outb>
  1001ce:	80 4b 09 80          	orb    $0x80,0x9(%ebx)
  1001d2:	80 63 17 7f          	andb   $0x7f,0x17(%ebx)
  1001d6:	83 c4 10             	add    $0x10,%esp
  1001d9:	51                   	push   %ecx
  1001da:	51                   	push   %ecx
  1001db:	56                   	push   %esi
  1001dc:	68 d4 03 00 00       	push   $0x3d4
  1001e1:	e8 93 0a 00 00       	call   100c79 <outb>
  1001e6:	58                   	pop    %eax
  1001e7:	0f b6 44 33 06       	movzbl 0x6(%ebx,%esi,1),%eax
  1001ec:	46                   	inc    %esi
  1001ed:	5a                   	pop    %edx
  1001ee:	50                   	push   %eax
  1001ef:	68 d5 03 00 00       	push   $0x3d5
  1001f4:	e8 80 0a 00 00       	call   100c79 <outb>
  1001f9:	83 c4 10             	add    $0x10,%esp
  1001fc:	83 fe 19             	cmp    $0x19,%esi
  1001ff:	75 d8                	jne    1001d9 <libvga_write_regs+0xa8>
  100201:	31 f6                	xor    %esi,%esi
  100203:	51                   	push   %ecx
  100204:	51                   	push   %ecx
  100205:	56                   	push   %esi
  100206:	68 ce 03 00 00       	push   $0x3ce
  10020b:	e8 69 0a 00 00       	call   100c79 <outb>
  100210:	58                   	pop    %eax
  100211:	0f b6 44 33 1f       	movzbl 0x1f(%ebx,%esi,1),%eax
  100216:	46                   	inc    %esi
  100217:	5a                   	pop    %edx
  100218:	50                   	push   %eax
  100219:	68 cf 03 00 00       	push   $0x3cf
  10021e:	e8 56 0a 00 00       	call   100c79 <outb>
  100223:	83 c4 10             	add    $0x10,%esp
  100226:	83 fe 09             	cmp    $0x9,%esi
  100229:	75 d8                	jne    100203 <libvga_write_regs+0xd2>
  10022b:	83 ec 0c             	sub    $0xc,%esp
  10022e:	31 f6                	xor    %esi,%esi
  100230:	68 da 03 00 00       	push   $0x3da
  100235:	e8 4b 0a 00 00       	call   100c85 <inb>
  10023a:	83 c4 10             	add    $0x10,%esp
  10023d:	50                   	push   %eax
  10023e:	50                   	push   %eax
  10023f:	56                   	push   %esi
  100240:	68 c0 03 00 00       	push   $0x3c0
  100245:	e8 2f 0a 00 00       	call   100c79 <outb>
  10024a:	58                   	pop    %eax
  10024b:	0f b6 44 33 28       	movzbl 0x28(%ebx,%esi,1),%eax
  100250:	46                   	inc    %esi
  100251:	5a                   	pop    %edx
  100252:	50                   	push   %eax
  100253:	68 c0 03 00 00       	push   $0x3c0
  100258:	e8 1c 0a 00 00       	call   100c79 <outb>
  10025d:	83 c4 10             	add    $0x10,%esp
  100260:	83 fe 15             	cmp    $0x15,%esi
  100263:	75 d8                	jne    10023d <libvga_write_regs+0x10c>
  100265:	83 ec 0c             	sub    $0xc,%esp
  100268:	68 da 03 00 00       	push   $0x3da
  10026d:	e8 13 0a 00 00       	call   100c85 <inb>
  100272:	58                   	pop    %eax
  100273:	5a                   	pop    %edx
  100274:	6a 20                	push   $0x20
  100276:	68 c0 03 00 00       	push   $0x3c0
  10027b:	e8 f9 09 00 00       	call   100c79 <outb>
  100280:	59                   	pop    %ecx
  100281:	5b                   	pop    %ebx
  100282:	68 ff 00 00 00       	push   $0xff
  100287:	68 c6 03 00 00       	push   $0x3c6
  10028c:	e8 e8 09 00 00       	call   100c79 <outb>
  100291:	5e                   	pop    %esi
  100292:	58                   	pop    %eax
  100293:	68 00 01 00 00       	push   $0x100
  100298:	68 60 13 10 00       	push   $0x101360
  10029d:	e8 20 fe ff ff       	call   1000c2 <libvga_set_palette>
  1002a2:	83 c4 10             	add    $0x10,%esp
  1002a5:	8d 65 f8             	lea    -0x8(%ebp),%esp
  1002a8:	5b                   	pop    %ebx
  1002a9:	5e                   	pop    %esi
  1002aa:	5d                   	pop    %ebp
  1002ab:	c3                   	ret    

001002ac <libvga_get_framebuffer>:
  1002ac:	55                   	push   %ebp
  1002ad:	89 e5                	mov    %esp,%ebp
  1002af:	83 ec 10             	sub    $0x10,%esp
  1002b2:	6a 06                	push   $0x6
  1002b4:	68 ce 03 00 00       	push   $0x3ce
  1002b9:	e8 bb 09 00 00       	call   100c79 <outb>
  1002be:	c7 04 24 cf 03 00 00 	movl   $0x3cf,(%esp)
  1002c5:	e8 bb 09 00 00       	call   100c85 <inb>
  1002ca:	83 e0 0c             	and    $0xc,%eax
  1002cd:	8b 80 20 10 10 00    	mov    0x101020(%eax),%eax
  1002d3:	c9                   	leave  
  1002d4:	c3                   	ret    

001002d5 <libvga_switch_mode13h>:
  1002d5:	55                   	push   %ebp
  1002d6:	b8 a0 17 10 00       	mov    $0x1017a0,%eax
  1002db:	89 e5                	mov    %esp,%ebp
  1002dd:	83 ec 08             	sub    $0x8,%esp
  1002e0:	e8 4c fe ff ff       	call   100131 <libvga_write_regs>
  1002e5:	e8 c2 ff ff ff       	call   1002ac <libvga_get_framebuffer>
  1002ea:	31 d2                	xor    %edx,%edx
  1002ec:	8a 0c 10             	mov    (%eax,%edx,1),%cl
  1002ef:	42                   	inc    %edx
  1002f0:	88 8a 5f 18 10 00    	mov    %cl,0x10185f(%edx)
  1002f6:	81 fa 00 fa 00 00    	cmp    $0xfa00,%edx
  1002fc:	75 ee                	jne    1002ec <libvga_switch_mode13h+0x17>
  1002fe:	c9                   	leave  
  1002ff:	c3                   	ret    

00100300 <libvga_switch_mode3h>:
  100300:	55                   	push   %ebp
  100301:	89 e5                	mov    %esp,%ebp
  100303:	83 ec 08             	sub    $0x8,%esp
  100306:	e8 a1 ff ff ff       	call   1002ac <libvga_get_framebuffer>
  10030b:	31 d2                	xor    %edx,%edx
  10030d:	8a 8a 60 18 10 00    	mov    0x101860(%edx),%cl
  100313:	88 0c 10             	mov    %cl,(%eax,%edx,1)
  100316:	42                   	inc    %edx
  100317:	81 fa 00 fa 00 00    	cmp    $0xfa00,%edx
  10031d:	75 ee                	jne    10030d <libvga_switch_mode3h+0xd>
  10031f:	c9                   	leave  
  100320:	b8 60 17 10 00       	mov    $0x101760,%eax
  100325:	e9 07 fe ff ff       	jmp    100131 <libvga_write_regs>

0010032a <init_gdt>:
  10032a:	55                   	push   %ebp
  10032b:	66 c7 05 60 12 11 00 	movw   $0x17,0x111260
  100332:	17 00 
  100334:	c7 05 62 12 11 00 68 	movl   $0x111268,0x111262
  10033b:	12 11 00 
  10033e:	66 c7 05 6a 12 11 00 	movw   $0x0,0x11126a
  100345:	00 00 
  100347:	89 e5                	mov    %esp,%ebp
  100349:	c6 05 6c 12 11 00 00 	movb   $0x0,0x11126c
  100350:	c6 05 6f 12 11 00 00 	movb   $0x0,0x11126f
  100357:	66 c7 05 68 12 11 00 	movw   $0x0,0x111268
  10035e:	00 00 
  100360:	c6 05 6e 12 11 00 00 	movb   $0x0,0x11126e
  100367:	c6 05 6d 12 11 00 00 	movb   $0x0,0x11126d
  10036e:	66 c7 05 72 12 11 00 	movw   $0x0,0x111272
  100375:	00 00 
  100377:	c6 05 74 12 11 00 00 	movb   $0x0,0x111274
  10037e:	c6 05 77 12 11 00 00 	movb   $0x0,0x111277
  100385:	66 c7 05 70 12 11 00 	movw   $0xffff,0x111270
  10038c:	ff ff 
  10038e:	c6 05 76 12 11 00 cf 	movb   $0xcf,0x111276
  100395:	c6 05 75 12 11 00 9a 	movb   $0x9a,0x111275
  10039c:	66 c7 05 7a 12 11 00 	movw   $0x0,0x11127a
  1003a3:	00 00 
  1003a5:	c6 05 7c 12 11 00 00 	movb   $0x0,0x11127c
  1003ac:	c6 05 7f 12 11 00 00 	movb   $0x0,0x11127f
  1003b3:	66 c7 05 78 12 11 00 	movw   $0xffff,0x111278
  1003ba:	ff ff 
  1003bc:	c6 05 7e 12 11 00 cf 	movb   $0xcf,0x11127e
  1003c3:	c6 05 7d 12 11 00 92 	movb   $0x92,0x11127d
  1003ca:	0f 01 15 60 12 11 00 	lgdtl  0x111260
  1003d1:	0f 20 c0             	mov    %cr0,%eax
  1003d4:	0b 05 01 00 00 00    	or     0x1,%eax
  1003da:	0f 22 c0             	mov    %eax,%cr0
  1003dd:	0f 22 c0             	mov    %eax,%cr0
  1003e0:	66 b8 10 00          	mov    $0x10,%ax
  1003e4:	8e d8                	mov    %eax,%ds
  1003e6:	8e c0                	mov    %eax,%es
  1003e8:	8e e0                	mov    %eax,%fs
  1003ea:	8e e8                	mov    %eax,%gs
  1003ec:	8e d0                	mov    %eax,%ss
  1003ee:	6a 08                	push   $0x8
  1003f0:	68 f6 03 10 00       	push   $0x1003f6
  1003f5:	cb                   	lret   
  1003f6:	5d                   	pop    %ebp
  1003f7:	c3                   	ret    

001003f8 <prepare>:
  1003f8:	55                   	push   %ebp
  1003f9:	89 e5                	mov    %esp,%ebp
  1003fb:	57                   	push   %edi
  1003fc:	56                   	push   %esi
  1003fd:	53                   	push   %ebx
  1003fe:	83 ec 18             	sub    $0x18,%esp
  100401:	68 fb 03 00 00       	push   $0x3fb
  100406:	e8 7a 08 00 00       	call   100c85 <inb>
  10040b:	89 c6                	mov    %eax,%esi
  10040d:	c7 04 24 fa 03 00 00 	movl   $0x3fa,(%esp)
  100414:	81 e6 f4 00 00 00    	and    $0xf4,%esi
  10041a:	e8 66 08 00 00       	call   100c85 <inb>
  10041f:	c7 04 24 f9 03 00 00 	movl   $0x3f9,(%esp)
  100426:	88 c3                	mov    %al,%bl
  100428:	83 ce 03             	or     $0x3,%esi
  10042b:	e8 55 08 00 00       	call   100c85 <inb>
  100430:	89 c7                	mov    %eax,%edi
  100432:	83 cb c7             	or     $0xffffffc7,%ebx
  100435:	58                   	pop    %eax
  100436:	5a                   	pop    %edx
  100437:	56                   	push   %esi
  100438:	68 f8 03 00 00       	push   $0x3f8
  10043d:	0f b6 db             	movzbl %bl,%ebx
  100440:	e8 34 08 00 00       	call   100c79 <outb>
  100445:	59                   	pop    %ecx
  100446:	5e                   	pop    %esi
  100447:	6a 03                	push   $0x3
  100449:	68 f8 03 00 00       	push   $0x3f8
  10044e:	e8 26 08 00 00       	call   100c79 <outb>
  100453:	58                   	pop    %eax
  100454:	5a                   	pop    %edx
  100455:	6a 00                	push   $0x0
  100457:	68 f9 03 00 00       	push   $0x3f9
  10045c:	e8 18 08 00 00       	call   100c79 <outb>
  100461:	59                   	pop    %ecx
  100462:	5e                   	pop    %esi
  100463:	53                   	push   %ebx
  100464:	68 f8 03 00 00       	push   $0x3f8
  100469:	e8 0b 08 00 00       	call   100c79 <outb>
  10046e:	58                   	pop    %eax
  10046f:	89 f8                	mov    %edi,%eax
  100471:	5a                   	pop    %edx
  100472:	83 c8 02             	or     $0x2,%eax
  100475:	0f b6 c0             	movzbl %al,%eax
  100478:	50                   	push   %eax
  100479:	68 f8 03 00 00       	push   $0x3f8
  10047e:	e8 f6 07 00 00       	call   100c79 <outb>
  100483:	83 c4 10             	add    $0x10,%esp
  100486:	8d 65 f4             	lea    -0xc(%ebp),%esp
  100489:	5b                   	pop    %ebx
  10048a:	5e                   	pop    %esi
  10048b:	5f                   	pop    %edi
  10048c:	5d                   	pop    %ebp
  10048d:	c3                   	ret    

0010048e <write>:
  10048e:	55                   	push   %ebp
  10048f:	89 e5                	mov    %esp,%ebp
  100491:	57                   	push   %edi
  100492:	56                   	push   %esi
  100493:	53                   	push   %ebx
  100494:	83 ec 0c             	sub    $0xc,%esp
  100497:	8b 75 0c             	mov    0xc(%ebp),%esi
  10049a:	8b 5d 08             	mov    0x8(%ebp),%ebx
  10049d:	8d 3c 33             	lea    (%ebx,%esi,1),%edi
  1004a0:	39 fb                	cmp    %edi,%ebx
  1004a2:	74 17                	je     1004bb <write+0x2d>
  1004a4:	50                   	push   %eax
  1004a5:	50                   	push   %eax
  1004a6:	43                   	inc    %ebx
  1004a7:	0f b6 43 ff          	movzbl -0x1(%ebx),%eax
  1004ab:	50                   	push   %eax
  1004ac:	68 f8 03 00 00       	push   $0x3f8
  1004b1:	e8 c3 07 00 00       	call   100c79 <outb>
  1004b6:	83 c4 10             	add    $0x10,%esp
  1004b9:	eb e5                	jmp    1004a0 <write+0x12>
  1004bb:	8d 65 f4             	lea    -0xc(%ebp),%esp
  1004be:	89 f0                	mov    %esi,%eax
  1004c0:	5b                   	pop    %ebx
  1004c1:	5e                   	pop    %esi
  1004c2:	5f                   	pop    %edi
  1004c3:	5d                   	pop    %ebp
  1004c4:	c3                   	ret    
  1004c5:	66 90                	xchg   %ax,%ax
  1004c7:	66 90                	xchg   %ax,%ax
  1004c9:	66 90                	xchg   %ax,%ax
  1004cb:	66 90                	xchg   %ax,%ax
  1004cd:	66 90                	xchg   %ax,%ax
  1004cf:	90                   	nop

001004d0 <isr_common_stub>:
  1004d0:	60                   	pusha  
  1004d1:	66 8c d8             	mov    %ds,%ax
  1004d4:	50                   	push   %eax
  1004d5:	66 b8 10 00          	mov    $0x10,%ax
  1004d9:	8e d8                	mov    %eax,%ds
  1004db:	8e c0                	mov    %eax,%es
  1004dd:	8e e0                	mov    %eax,%fs
  1004df:	8e e8                	mov    %eax,%gs
  1004e1:	e8 24 04 00 00       	call   10090a <isr_handler>
  1004e6:	5b                   	pop    %ebx
  1004e7:	8e db                	mov    %ebx,%ds
  1004e9:	8e c3                	mov    %ebx,%es
  1004eb:	8e e3                	mov    %ebx,%fs
  1004ed:	8e eb                	mov    %ebx,%gs
  1004ef:	61                   	popa   
  1004f0:	83 c4 08             	add    $0x8,%esp
  1004f3:	fb                   	sti    
  1004f4:	cf                   	iret   

001004f5 <_isr0>:
  1004f5:	fa                   	cli    
  1004f6:	6a 00                	push   $0x0
  1004f8:	6a 00                	push   $0x0
  1004fa:	eb d4                	jmp    1004d0 <isr_common_stub>

001004fc <_isr1>:
  1004fc:	fa                   	cli    
  1004fd:	6a 00                	push   $0x0
  1004ff:	6a 01                	push   $0x1
  100501:	eb cd                	jmp    1004d0 <isr_common_stub>

00100503 <_isr2>:
  100503:	fa                   	cli    
  100504:	6a 00                	push   $0x0
  100506:	6a 02                	push   $0x2
  100508:	eb c6                	jmp    1004d0 <isr_common_stub>

0010050a <_isr3>:
  10050a:	fa                   	cli    
  10050b:	6a 00                	push   $0x0
  10050d:	6a 03                	push   $0x3
  10050f:	eb bf                	jmp    1004d0 <isr_common_stub>

00100511 <_isr4>:
  100511:	fa                   	cli    
  100512:	6a 00                	push   $0x0
  100514:	6a 04                	push   $0x4
  100516:	eb b8                	jmp    1004d0 <isr_common_stub>

00100518 <_isr5>:
  100518:	fa                   	cli    
  100519:	6a 00                	push   $0x0
  10051b:	6a 05                	push   $0x5
  10051d:	eb b1                	jmp    1004d0 <isr_common_stub>

0010051f <_isr6>:
  10051f:	fa                   	cli    
  100520:	6a 00                	push   $0x0
  100522:	6a 06                	push   $0x6
  100524:	eb aa                	jmp    1004d0 <isr_common_stub>

00100526 <_isr7>:
  100526:	fa                   	cli    
  100527:	6a 00                	push   $0x0
  100529:	6a 07                	push   $0x7
  10052b:	eb a3                	jmp    1004d0 <isr_common_stub>

0010052d <_isr8>:
  10052d:	fa                   	cli    
  10052e:	6a 08                	push   $0x8
  100530:	eb 9e                	jmp    1004d0 <isr_common_stub>

00100532 <_isr9>:
  100532:	fa                   	cli    
  100533:	6a 00                	push   $0x0
  100535:	6a 09                	push   $0x9
  100537:	eb 97                	jmp    1004d0 <isr_common_stub>

00100539 <_isr10>:
  100539:	fa                   	cli    
  10053a:	6a 0a                	push   $0xa
  10053c:	eb 92                	jmp    1004d0 <isr_common_stub>

0010053e <_isr11>:
  10053e:	fa                   	cli    
  10053f:	6a 0b                	push   $0xb
  100541:	eb 8d                	jmp    1004d0 <isr_common_stub>

00100543 <_isr12>:
  100543:	fa                   	cli    
  100544:	6a 0c                	push   $0xc
  100546:	eb 88                	jmp    1004d0 <isr_common_stub>

00100548 <_isr13>:
  100548:	fa                   	cli    
  100549:	6a 0d                	push   $0xd
  10054b:	eb 83                	jmp    1004d0 <isr_common_stub>

0010054d <_isr14>:
  10054d:	fa                   	cli    
  10054e:	6a 0e                	push   $0xe
  100550:	e9 7b ff ff ff       	jmp    1004d0 <isr_common_stub>

00100555 <_isr15>:
  100555:	fa                   	cli    
  100556:	6a 00                	push   $0x0
  100558:	6a 0f                	push   $0xf
  10055a:	e9 71 ff ff ff       	jmp    1004d0 <isr_common_stub>

0010055f <_isr16>:
  10055f:	fa                   	cli    
  100560:	6a 00                	push   $0x0
  100562:	6a 10                	push   $0x10
  100564:	e9 67 ff ff ff       	jmp    1004d0 <isr_common_stub>

00100569 <_isr17>:
  100569:	fa                   	cli    
  10056a:	6a 00                	push   $0x0
  10056c:	6a 11                	push   $0x11
  10056e:	e9 5d ff ff ff       	jmp    1004d0 <isr_common_stub>

00100573 <_isr18>:
  100573:	fa                   	cli    
  100574:	6a 00                	push   $0x0
  100576:	6a 12                	push   $0x12
  100578:	e9 53 ff ff ff       	jmp    1004d0 <isr_common_stub>

0010057d <_isr19>:
  10057d:	fa                   	cli    
  10057e:	6a 00                	push   $0x0
  100580:	6a 13                	push   $0x13
  100582:	e9 49 ff ff ff       	jmp    1004d0 <isr_common_stub>

00100587 <_isr20>:
  100587:	fa                   	cli    
  100588:	6a 00                	push   $0x0
  10058a:	6a 14                	push   $0x14
  10058c:	e9 3f ff ff ff       	jmp    1004d0 <isr_common_stub>

00100591 <_isr21>:
  100591:	fa                   	cli    
  100592:	6a 00                	push   $0x0
  100594:	6a 15                	push   $0x15
  100596:	e9 35 ff ff ff       	jmp    1004d0 <isr_common_stub>

0010059b <_isr22>:
  10059b:	fa                   	cli    
  10059c:	6a 00                	push   $0x0
  10059e:	6a 16                	push   $0x16
  1005a0:	e9 2b ff ff ff       	jmp    1004d0 <isr_common_stub>

001005a5 <_isr23>:
  1005a5:	fa                   	cli    
  1005a6:	6a 00                	push   $0x0
  1005a8:	6a 17                	push   $0x17
  1005aa:	e9 21 ff ff ff       	jmp    1004d0 <isr_common_stub>

001005af <_isr24>:
  1005af:	fa                   	cli    
  1005b0:	6a 00                	push   $0x0
  1005b2:	6a 18                	push   $0x18
  1005b4:	e9 17 ff ff ff       	jmp    1004d0 <isr_common_stub>

001005b9 <_isr25>:
  1005b9:	fa                   	cli    
  1005ba:	6a 00                	push   $0x0
  1005bc:	6a 19                	push   $0x19
  1005be:	e9 0d ff ff ff       	jmp    1004d0 <isr_common_stub>

001005c3 <_isr26>:
  1005c3:	fa                   	cli    
  1005c4:	6a 00                	push   $0x0
  1005c6:	6a 1a                	push   $0x1a
  1005c8:	e9 03 ff ff ff       	jmp    1004d0 <isr_common_stub>

001005cd <_isr27>:
  1005cd:	fa                   	cli    
  1005ce:	6a 00                	push   $0x0
  1005d0:	6a 1b                	push   $0x1b
  1005d2:	e9 f9 fe ff ff       	jmp    1004d0 <isr_common_stub>

001005d7 <_isr28>:
  1005d7:	fa                   	cli    
  1005d8:	6a 00                	push   $0x0
  1005da:	6a 1c                	push   $0x1c
  1005dc:	e9 ef fe ff ff       	jmp    1004d0 <isr_common_stub>

001005e1 <_isr29>:
  1005e1:	fa                   	cli    
  1005e2:	6a 00                	push   $0x0
  1005e4:	6a 1d                	push   $0x1d
  1005e6:	e9 e5 fe ff ff       	jmp    1004d0 <isr_common_stub>

001005eb <_isr30>:
  1005eb:	fa                   	cli    
  1005ec:	6a 00                	push   $0x0
  1005ee:	6a 1e                	push   $0x1e
  1005f0:	e9 db fe ff ff       	jmp    1004d0 <isr_common_stub>

001005f5 <_isr31>:
  1005f5:	fa                   	cli    
  1005f6:	6a 00                	push   $0x0
  1005f8:	6a 1f                	push   $0x1f
  1005fa:	e9 d1 fe ff ff       	jmp    1004d0 <isr_common_stub>

001005ff <idt_set_gate>:
  1005ff:	55                   	push   %ebp
  100600:	89 e5                	mov    %esp,%ebp
  100602:	0f b6 45 08          	movzbl 0x8(%ebp),%eax
  100606:	8b 55 0c             	mov    0xc(%ebp),%edx
  100609:	66 89 14 c5 a0 12 11 	mov    %dx,0x1112a0(,%eax,8)
  100610:	00 
  100611:	c1 ea 10             	shr    $0x10,%edx
  100614:	c6 04 c5 a4 12 11 00 	movb   $0x0,0x1112a4(,%eax,8)
  10061b:	00 
  10061c:	66 89 14 c5 a6 12 11 	mov    %dx,0x1112a6(,%eax,8)
  100623:	00 
  100624:	8b 55 10             	mov    0x10(%ebp),%edx
  100627:	66 89 14 c5 a2 12 11 	mov    %dx,0x1112a2(,%eax,8)
  10062e:	00 
  10062f:	8b 55 14             	mov    0x14(%ebp),%edx
  100632:	5d                   	pop    %ebp
  100633:	88 14 c5 a5 12 11 00 	mov    %dl,0x1112a5(,%eax,8)
  10063a:	c3                   	ret    

0010063b <idt_load>:
  10063b:	55                   	push   %ebp
  10063c:	89 e5                	mov    %esp,%ebp
  10063e:	68 8e 00 00 00       	push   $0x8e
  100643:	6a 08                	push   $0x8
  100645:	68 f5 04 10 00       	push   $0x1004f5
  10064a:	6a 00                	push   $0x0
  10064c:	e8 ae ff ff ff       	call   1005ff <idt_set_gate>
  100651:	68 8e 00 00 00       	push   $0x8e
  100656:	6a 08                	push   $0x8
  100658:	68 fc 04 10 00       	push   $0x1004fc
  10065d:	6a 01                	push   $0x1
  10065f:	e8 9b ff ff ff       	call   1005ff <idt_set_gate>
  100664:	83 c4 20             	add    $0x20,%esp
  100667:	68 8e 00 00 00       	push   $0x8e
  10066c:	6a 08                	push   $0x8
  10066e:	68 03 05 10 00       	push   $0x100503
  100673:	6a 02                	push   $0x2
  100675:	e8 85 ff ff ff       	call   1005ff <idt_set_gate>
  10067a:	68 8e 00 00 00       	push   $0x8e
  10067f:	6a 08                	push   $0x8
  100681:	68 0a 05 10 00       	push   $0x10050a
  100686:	6a 03                	push   $0x3
  100688:	e8 72 ff ff ff       	call   1005ff <idt_set_gate>
  10068d:	83 c4 20             	add    $0x20,%esp
  100690:	68 8e 00 00 00       	push   $0x8e
  100695:	6a 08                	push   $0x8
  100697:	68 11 05 10 00       	push   $0x100511
  10069c:	6a 04                	push   $0x4
  10069e:	e8 5c ff ff ff       	call   1005ff <idt_set_gate>
  1006a3:	68 8e 00 00 00       	push   $0x8e
  1006a8:	6a 08                	push   $0x8
  1006aa:	68 18 05 10 00       	push   $0x100518
  1006af:	6a 05                	push   $0x5
  1006b1:	e8 49 ff ff ff       	call   1005ff <idt_set_gate>
  1006b6:	83 c4 20             	add    $0x20,%esp
  1006b9:	68 8e 00 00 00       	push   $0x8e
  1006be:	6a 08                	push   $0x8
  1006c0:	68 1f 05 10 00       	push   $0x10051f
  1006c5:	6a 06                	push   $0x6
  1006c7:	e8 33 ff ff ff       	call   1005ff <idt_set_gate>
  1006cc:	68 8e 00 00 00       	push   $0x8e
  1006d1:	6a 08                	push   $0x8
  1006d3:	68 26 05 10 00       	push   $0x100526
  1006d8:	6a 07                	push   $0x7
  1006da:	e8 20 ff ff ff       	call   1005ff <idt_set_gate>
  1006df:	83 c4 20             	add    $0x20,%esp
  1006e2:	68 8e 00 00 00       	push   $0x8e
  1006e7:	6a 08                	push   $0x8
  1006e9:	68 2d 05 10 00       	push   $0x10052d
  1006ee:	6a 08                	push   $0x8
  1006f0:	e8 0a ff ff ff       	call   1005ff <idt_set_gate>
  1006f5:	68 8e 00 00 00       	push   $0x8e
  1006fa:	6a 08                	push   $0x8
  1006fc:	68 32 05 10 00       	push   $0x100532
  100701:	6a 09                	push   $0x9
  100703:	e8 f7 fe ff ff       	call   1005ff <idt_set_gate>
  100708:	83 c4 20             	add    $0x20,%esp
  10070b:	68 8e 00 00 00       	push   $0x8e
  100710:	6a 08                	push   $0x8
  100712:	68 39 05 10 00       	push   $0x100539
  100717:	6a 0a                	push   $0xa
  100719:	e8 e1 fe ff ff       	call   1005ff <idt_set_gate>
  10071e:	68 8e 00 00 00       	push   $0x8e
  100723:	6a 08                	push   $0x8
  100725:	68 3e 05 10 00       	push   $0x10053e
  10072a:	6a 0b                	push   $0xb
  10072c:	e8 ce fe ff ff       	call   1005ff <idt_set_gate>
  100731:	83 c4 20             	add    $0x20,%esp
  100734:	68 8e 00 00 00       	push   $0x8e
  100739:	6a 08                	push   $0x8
  10073b:	68 43 05 10 00       	push   $0x100543
  100740:	6a 0c                	push   $0xc
  100742:	e8 b8 fe ff ff       	call   1005ff <idt_set_gate>
  100747:	68 8e 00 00 00       	push   $0x8e
  10074c:	6a 08                	push   $0x8
  10074e:	68 48 05 10 00       	push   $0x100548
  100753:	6a 0d                	push   $0xd
  100755:	e8 a5 fe ff ff       	call   1005ff <idt_set_gate>
  10075a:	83 c4 20             	add    $0x20,%esp
  10075d:	68 8e 00 00 00       	push   $0x8e
  100762:	6a 08                	push   $0x8
  100764:	68 4d 05 10 00       	push   $0x10054d
  100769:	6a 0e                	push   $0xe
  10076b:	e8 8f fe ff ff       	call   1005ff <idt_set_gate>
  100770:	68 8e 00 00 00       	push   $0x8e
  100775:	6a 08                	push   $0x8
  100777:	68 55 05 10 00       	push   $0x100555
  10077c:	6a 0f                	push   $0xf
  10077e:	e8 7c fe ff ff       	call   1005ff <idt_set_gate>
  100783:	83 c4 20             	add    $0x20,%esp
  100786:	68 8e 00 00 00       	push   $0x8e
  10078b:	6a 08                	push   $0x8
  10078d:	68 5f 05 10 00       	push   $0x10055f
  100792:	6a 10                	push   $0x10
  100794:	e8 66 fe ff ff       	call   1005ff <idt_set_gate>
  100799:	68 8e 00 00 00       	push   $0x8e
  10079e:	6a 08                	push   $0x8
  1007a0:	68 69 05 10 00       	push   $0x100569
  1007a5:	6a 11                	push   $0x11
  1007a7:	e8 53 fe ff ff       	call   1005ff <idt_set_gate>
  1007ac:	83 c4 20             	add    $0x20,%esp
  1007af:	68 8e 00 00 00       	push   $0x8e
  1007b4:	6a 08                	push   $0x8
  1007b6:	68 73 05 10 00       	push   $0x100573
  1007bb:	6a 12                	push   $0x12
  1007bd:	e8 3d fe ff ff       	call   1005ff <idt_set_gate>
  1007c2:	68 8e 00 00 00       	push   $0x8e
  1007c7:	6a 08                	push   $0x8
  1007c9:	68 7d 05 10 00       	push   $0x10057d
  1007ce:	6a 13                	push   $0x13
  1007d0:	e8 2a fe ff ff       	call   1005ff <idt_set_gate>
  1007d5:	83 c4 20             	add    $0x20,%esp
  1007d8:	68 8e 00 00 00       	push   $0x8e
  1007dd:	6a 08                	push   $0x8
  1007df:	68 87 05 10 00       	push   $0x100587
  1007e4:	6a 14                	push   $0x14
  1007e6:	e8 14 fe ff ff       	call   1005ff <idt_set_gate>
  1007eb:	68 8e 00 00 00       	push   $0x8e
  1007f0:	6a 08                	push   $0x8
  1007f2:	68 91 05 10 00       	push   $0x100591
  1007f7:	6a 15                	push   $0x15
  1007f9:	e8 01 fe ff ff       	call   1005ff <idt_set_gate>
  1007fe:	83 c4 20             	add    $0x20,%esp
  100801:	68 8e 00 00 00       	push   $0x8e
  100806:	6a 08                	push   $0x8
  100808:	68 9b 05 10 00       	push   $0x10059b
  10080d:	6a 16                	push   $0x16
  10080f:	e8 eb fd ff ff       	call   1005ff <idt_set_gate>
  100814:	68 8e 00 00 00       	push   $0x8e
  100819:	6a 08                	push   $0x8
  10081b:	68 a5 05 10 00       	push   $0x1005a5
  100820:	6a 17                	push   $0x17
  100822:	e8 d8 fd ff ff       	call   1005ff <idt_set_gate>
  100827:	83 c4 20             	add    $0x20,%esp
  10082a:	68 8e 00 00 00       	push   $0x8e
  10082f:	6a 08                	push   $0x8
  100831:	68 af 05 10 00       	push   $0x1005af
  100836:	6a 18                	push   $0x18
  100838:	e8 c2 fd ff ff       	call   1005ff <idt_set_gate>
  10083d:	68 8e 00 00 00       	push   $0x8e
  100842:	6a 08                	push   $0x8
  100844:	68 b9 05 10 00       	push   $0x1005b9
  100849:	6a 19                	push   $0x19
  10084b:	e8 af fd ff ff       	call   1005ff <idt_set_gate>
  100850:	83 c4 20             	add    $0x20,%esp
  100853:	68 8e 00 00 00       	push   $0x8e
  100858:	6a 08                	push   $0x8
  10085a:	68 c3 05 10 00       	push   $0x1005c3
  10085f:	6a 1a                	push   $0x1a
  100861:	e8 99 fd ff ff       	call   1005ff <idt_set_gate>
  100866:	68 8e 00 00 00       	push   $0x8e
  10086b:	6a 08                	push   $0x8
  10086d:	68 cd 05 10 00       	push   $0x1005cd
  100872:	6a 1b                	push   $0x1b
  100874:	e8 86 fd ff ff       	call   1005ff <idt_set_gate>
  100879:	83 c4 20             	add    $0x20,%esp
  10087c:	68 8e 00 00 00       	push   $0x8e
  100881:	6a 08                	push   $0x8
  100883:	68 d7 05 10 00       	push   $0x1005d7
  100888:	6a 1c                	push   $0x1c
  10088a:	e8 70 fd ff ff       	call   1005ff <idt_set_gate>
  10088f:	68 8e 00 00 00       	push   $0x8e
  100894:	6a 08                	push   $0x8
  100896:	68 e1 05 10 00       	push   $0x1005e1
  10089b:	6a 1d                	push   $0x1d
  10089d:	e8 5d fd ff ff       	call   1005ff <idt_set_gate>
  1008a2:	83 c4 20             	add    $0x20,%esp
  1008a5:	68 8e 00 00 00       	push   $0x8e
  1008aa:	6a 08                	push   $0x8
  1008ac:	68 eb 05 10 00       	push   $0x1005eb
  1008b1:	6a 1e                	push   $0x1e
  1008b3:	e8 47 fd ff ff       	call   1005ff <idt_set_gate>
  1008b8:	68 8e 00 00 00       	push   $0x8e
  1008bd:	6a 08                	push   $0x8
  1008bf:	68 f5 05 10 00       	push   $0x1005f5
  1008c4:	6a 1f                	push   $0x1f
  1008c6:	e8 34 fd ff ff       	call   1005ff <idt_set_gate>
  1008cb:	0f 01 1d 80 12 11 00 	lidtl  0x111280
  1008d2:	83 c4 20             	add    $0x20,%esp
  1008d5:	c9                   	leave  
  1008d6:	c3                   	ret    

001008d7 <init_idt>:
  1008d7:	55                   	push   %ebp
  1008d8:	89 e5                	mov    %esp,%ebp
  1008da:	83 ec 0c             	sub    $0xc,%esp
  1008dd:	66 c7 05 80 12 11 00 	movw   $0x7ff,0x111280
  1008e4:	ff 07 
  1008e6:	68 00 08 00 00       	push   $0x800
  1008eb:	6a 00                	push   $0x0
  1008ed:	68 a0 12 11 00       	push   $0x1112a0
  1008f2:	c7 05 82 12 11 00 a0 	movl   $0x1112a0,0x111282
  1008f9:	12 11 00 
  1008fc:	e8 ea 06 00 00       	call   100feb <memset>
  100901:	83 c4 10             	add    $0x10,%esp
  100904:	c9                   	leave  
  100905:	e9 31 fd ff ff       	jmp    10063b <idt_load>

0010090a <isr_handler>:
  10090a:	55                   	push   %ebp
  10090b:	89 e5                	mov    %esp,%ebp
  10090d:	53                   	push   %ebx
  10090e:	83 ec 10             	sub    $0x10,%esp
  100911:	8b 5d 08             	mov    0x8(%ebp),%ebx
  100914:	68 c0 10 10 00       	push   $0x1010c0
  100919:	e8 bf 05 00 00       	call   100edd <monitor_write>
  10091e:	8b 43 24             	mov    0x24(%ebx),%eax
  100921:	83 c4 10             	add    $0x10,%esp
  100924:	83 f8 1f             	cmp    $0x1f,%eax
  100927:	77 22                	ja     10094b <isr_handler+0x41>
  100929:	83 ec 0c             	sub    $0xc,%esp
  10092c:	ff 34 85 e0 17 10 00 	pushl  0x1017e0(,%eax,4)
  100933:	e8 a5 05 00 00       	call   100edd <monitor_write>
  100938:	83 c4 10             	add    $0x10,%esp
  10093b:	c7 45 08 0a 00 00 00 	movl   $0xa,0x8(%ebp)
  100942:	8b 5d fc             	mov    -0x4(%ebp),%ebx
  100945:	c9                   	leave  
  100946:	e9 92 04 00 00       	jmp    100ddd <monitor_put>
  10094b:	c7 45 08 dc 10 10 00 	movl   $0x1010dc,0x8(%ebp)
  100952:	8b 5d fc             	mov    -0x4(%ebp),%ebx
  100955:	c9                   	leave  
  100956:	e9 82 05 00 00       	jmp    100edd <monitor_write>

0010095b <irq_install_handler>:
  10095b:	55                   	push   %ebp
  10095c:	89 e5                	mov    %esp,%ebp
  10095e:	8b 55 0c             	mov    0xc(%ebp),%edx
  100961:	8b 45 08             	mov    0x8(%ebp),%eax
  100964:	5d                   	pop    %ebp
  100965:	89 14 85 a0 1a 11 00 	mov    %edx,0x111aa0(,%eax,4)
  10096c:	c3                   	ret    

0010096d <irq_uninstall_handler>:
  10096d:	55                   	push   %ebp
  10096e:	89 e5                	mov    %esp,%ebp
  100970:	8b 45 08             	mov    0x8(%ebp),%eax
  100973:	5d                   	pop    %ebp
  100974:	c7 04 85 a0 1a 11 00 	movl   $0x0,0x111aa0(,%eax,4)
  10097b:	00 00 00 00 
  10097f:	c3                   	ret    

00100980 <irq_remap>:
  100980:	55                   	push   %ebp
  100981:	89 e5                	mov    %esp,%ebp
  100983:	83 ec 10             	sub    $0x10,%esp
  100986:	6a 11                	push   $0x11
  100988:	6a 20                	push   $0x20
  10098a:	e8 ea 02 00 00       	call   100c79 <outb>
  10098f:	58                   	pop    %eax
  100990:	5a                   	pop    %edx
  100991:	6a 11                	push   $0x11
  100993:	68 a0 00 00 00       	push   $0xa0
  100998:	e8 dc 02 00 00       	call   100c79 <outb>
  10099d:	59                   	pop    %ecx
  10099e:	58                   	pop    %eax
  10099f:	6a 20                	push   $0x20
  1009a1:	6a 21                	push   $0x21
  1009a3:	e8 d1 02 00 00       	call   100c79 <outb>
  1009a8:	58                   	pop    %eax
  1009a9:	5a                   	pop    %edx
  1009aa:	6a 28                	push   $0x28
  1009ac:	68 a1 00 00 00       	push   $0xa1
  1009b1:	e8 c3 02 00 00       	call   100c79 <outb>
  1009b6:	59                   	pop    %ecx
  1009b7:	58                   	pop    %eax
  1009b8:	6a 04                	push   $0x4
  1009ba:	6a 21                	push   $0x21
  1009bc:	e8 b8 02 00 00       	call   100c79 <outb>
  1009c1:	58                   	pop    %eax
  1009c2:	5a                   	pop    %edx
  1009c3:	6a 02                	push   $0x2
  1009c5:	68 a1 00 00 00       	push   $0xa1
  1009ca:	e8 aa 02 00 00       	call   100c79 <outb>
  1009cf:	59                   	pop    %ecx
  1009d0:	58                   	pop    %eax
  1009d1:	6a 01                	push   $0x1
  1009d3:	6a 21                	push   $0x21
  1009d5:	e8 9f 02 00 00       	call   100c79 <outb>
  1009da:	58                   	pop    %eax
  1009db:	5a                   	pop    %edx
  1009dc:	6a 01                	push   $0x1
  1009de:	68 a1 00 00 00       	push   $0xa1
  1009e3:	e8 91 02 00 00       	call   100c79 <outb>
  1009e8:	59                   	pop    %ecx
  1009e9:	58                   	pop    %eax
  1009ea:	6a 00                	push   $0x0
  1009ec:	6a 21                	push   $0x21
  1009ee:	e8 86 02 00 00       	call   100c79 <outb>
  1009f3:	58                   	pop    %eax
  1009f4:	5a                   	pop    %edx
  1009f5:	6a 00                	push   $0x0
  1009f7:	68 a1 00 00 00       	push   $0xa1
  1009fc:	e8 78 02 00 00       	call   100c79 <outb>
  100a01:	83 c4 10             	add    $0x10,%esp
  100a04:	c9                   	leave  
  100a05:	c3                   	ret    

00100a06 <irq_install>:
  100a06:	55                   	push   %ebp
  100a07:	89 e5                	mov    %esp,%ebp
  100a09:	83 ec 08             	sub    $0x8,%esp
  100a0c:	e8 6f ff ff ff       	call   100980 <irq_remap>
  100a11:	68 8e 00 00 00       	push   $0x8e
  100a16:	6a 08                	push   $0x8
  100a18:	68 e0 0b 10 00       	push   $0x100be0
  100a1d:	6a 20                	push   $0x20
  100a1f:	e8 db fb ff ff       	call   1005ff <idt_set_gate>
  100a24:	68 8e 00 00 00       	push   $0x8e
  100a29:	6a 08                	push   $0x8
  100a2b:	68 e7 0b 10 00       	push   $0x100be7
  100a30:	6a 21                	push   $0x21
  100a32:	e8 c8 fb ff ff       	call   1005ff <idt_set_gate>
  100a37:	83 c4 20             	add    $0x20,%esp
  100a3a:	68 8e 00 00 00       	push   $0x8e
  100a3f:	6a 08                	push   $0x8
  100a41:	68 fc 0b 10 00       	push   $0x100bfc
  100a46:	6a 22                	push   $0x22
  100a48:	e8 b2 fb ff ff       	call   1005ff <idt_set_gate>
  100a4d:	68 8e 00 00 00       	push   $0x8e
  100a52:	6a 08                	push   $0x8
  100a54:	68 03 0c 10 00       	push   $0x100c03
  100a59:	6a 23                	push   $0x23
  100a5b:	e8 9f fb ff ff       	call   1005ff <idt_set_gate>
  100a60:	83 c4 20             	add    $0x20,%esp
  100a63:	68 8e 00 00 00       	push   $0x8e
  100a68:	6a 08                	push   $0x8
  100a6a:	68 0a 0c 10 00       	push   $0x100c0a
  100a6f:	6a 24                	push   $0x24
  100a71:	e8 89 fb ff ff       	call   1005ff <idt_set_gate>
  100a76:	68 8e 00 00 00       	push   $0x8e
  100a7b:	6a 08                	push   $0x8
  100a7d:	68 11 0c 10 00       	push   $0x100c11
  100a82:	6a 25                	push   $0x25
  100a84:	e8 76 fb ff ff       	call   1005ff <idt_set_gate>
  100a89:	83 c4 20             	add    $0x20,%esp
  100a8c:	68 8e 00 00 00       	push   $0x8e
  100a91:	6a 08                	push   $0x8
  100a93:	68 18 0c 10 00       	push   $0x100c18
  100a98:	6a 26                	push   $0x26
  100a9a:	e8 60 fb ff ff       	call   1005ff <idt_set_gate>
  100a9f:	68 8e 00 00 00       	push   $0x8e
  100aa4:	6a 08                	push   $0x8
  100aa6:	68 1f 0c 10 00       	push   $0x100c1f
  100aab:	6a 27                	push   $0x27
  100aad:	e8 4d fb ff ff       	call   1005ff <idt_set_gate>
  100ab2:	83 c4 20             	add    $0x20,%esp
  100ab5:	68 8e 00 00 00       	push   $0x8e
  100aba:	6a 08                	push   $0x8
  100abc:	68 26 0c 10 00       	push   $0x100c26
  100ac1:	6a 28                	push   $0x28
  100ac3:	e8 37 fb ff ff       	call   1005ff <idt_set_gate>
  100ac8:	68 8e 00 00 00       	push   $0x8e
  100acd:	6a 08                	push   $0x8
  100acf:	68 2d 0c 10 00       	push   $0x100c2d
  100ad4:	6a 29                	push   $0x29
  100ad6:	e8 24 fb ff ff       	call   1005ff <idt_set_gate>
  100adb:	83 c4 20             	add    $0x20,%esp
  100ade:	68 8e 00 00 00       	push   $0x8e
  100ae3:	6a 08                	push   $0x8
  100ae5:	68 34 0c 10 00       	push   $0x100c34
  100aea:	6a 2a                	push   $0x2a
  100aec:	e8 0e fb ff ff       	call   1005ff <idt_set_gate>
  100af1:	68 8e 00 00 00       	push   $0x8e
  100af6:	6a 08                	push   $0x8
  100af8:	68 3b 0c 10 00       	push   $0x100c3b
  100afd:	6a 2b                	push   $0x2b
  100aff:	e8 fb fa ff ff       	call   1005ff <idt_set_gate>
  100b04:	83 c4 20             	add    $0x20,%esp
  100b07:	68 8e 00 00 00       	push   $0x8e
  100b0c:	6a 08                	push   $0x8
  100b0e:	68 42 0c 10 00       	push   $0x100c42
  100b13:	6a 2c                	push   $0x2c
  100b15:	e8 e5 fa ff ff       	call   1005ff <idt_set_gate>
  100b1a:	68 8e 00 00 00       	push   $0x8e
  100b1f:	6a 08                	push   $0x8
  100b21:	68 49 0c 10 00       	push   $0x100c49
  100b26:	6a 2d                	push   $0x2d
  100b28:	e8 d2 fa ff ff       	call   1005ff <idt_set_gate>
  100b2d:	83 c4 20             	add    $0x20,%esp
  100b30:	68 8e 00 00 00       	push   $0x8e
  100b35:	6a 08                	push   $0x8
  100b37:	68 42 0c 10 00       	push   $0x100c42
  100b3c:	6a 2e                	push   $0x2e
  100b3e:	e8 bc fa ff ff       	call   1005ff <idt_set_gate>
  100b43:	68 8e 00 00 00       	push   $0x8e
  100b48:	6a 08                	push   $0x8
  100b4a:	68 49 0c 10 00       	push   $0x100c49
  100b4f:	6a 2f                	push   $0x2f
  100b51:	e8 a9 fa ff ff       	call   1005ff <idt_set_gate>
  100b56:	83 c4 20             	add    $0x20,%esp
  100b59:	c9                   	leave  
  100b5a:	c3                   	ret    

00100b5b <_irq_handler>:
  100b5b:	55                   	push   %ebp
  100b5c:	89 e5                	mov    %esp,%ebp
  100b5e:	56                   	push   %esi
  100b5f:	53                   	push   %ebx
  100b60:	8b 5d 08             	mov    0x8(%ebp),%ebx
  100b63:	8b 43 24             	mov    0x24(%ebx),%eax
  100b66:	8b 34 85 20 1a 11 00 	mov    0x111a20(,%eax,4),%esi
  100b6d:	85 f6                	test   %esi,%esi
  100b6f:	74 11                	je     100b82 <_irq_handler+0x27>
  100b71:	83 ec 0c             	sub    $0xc,%esp
  100b74:	68 ea 12 10 00       	push   $0x1012ea
  100b79:	e8 5f 03 00 00       	call   100edd <monitor_write>
  100b7e:	ff d6                	call   *%esi
  100b80:	eb 0d                	jmp    100b8f <_irq_handler+0x34>
  100b82:	83 ec 0c             	sub    $0xc,%esp
  100b85:	68 fc 12 10 00       	push   $0x1012fc
  100b8a:	e8 4e 03 00 00       	call   100edd <monitor_write>
  100b8f:	0f be 43 28          	movsbl 0x28(%ebx),%eax
  100b93:	83 c4 10             	add    $0x10,%esp
  100b96:	83 ec 0c             	sub    $0xc,%esp
  100b99:	50                   	push   %eax
  100b9a:	e8 3e 02 00 00       	call   100ddd <monitor_put>
  100b9f:	83 c4 10             	add    $0x10,%esp
  100ba2:	83 7b 28 1f          	cmpl   $0x1f,0x28(%ebx)
  100ba6:	76 1d                	jbe    100bc5 <_irq_handler+0x6a>
  100ba8:	52                   	push   %edx
  100ba9:	52                   	push   %edx
  100baa:	6a 20                	push   $0x20
  100bac:	68 a0 00 00 00       	push   $0xa0
  100bb1:	e8 c3 00 00 00       	call   100c79 <outb>
  100bb6:	c7 04 24 0a 13 10 00 	movl   $0x10130a,(%esp)
  100bbd:	e8 1b 03 00 00       	call   100edd <monitor_write>
  100bc2:	83 c4 10             	add    $0x10,%esp
  100bc5:	50                   	push   %eax
  100bc6:	50                   	push   %eax
  100bc7:	6a 20                	push   $0x20
  100bc9:	6a 20                	push   $0x20
  100bcb:	e8 a9 00 00 00       	call   100c79 <outb>
  100bd0:	83 c4 10             	add    $0x10,%esp
  100bd3:	8d 65 f8             	lea    -0x8(%ebp),%esp
  100bd6:	5b                   	pop    %ebx
  100bd7:	5e                   	pop    %esi
  100bd8:	5d                   	pop    %ebp
  100bd9:	c3                   	ret    
  100bda:	66 90                	xchg   %ax,%ax
  100bdc:	66 90                	xchg   %ax,%ax
  100bde:	66 90                	xchg   %ax,%ax

00100be0 <_irq0>:
  100be0:	fa                   	cli    
  100be1:	6a 00                	push   $0x0
  100be3:	6a 20                	push   $0x20
  100be5:	eb 69                	jmp    100c50 <irq_common_stub>

00100be7 <_irq1>:
  100be7:	fa                   	cli    
  100be8:	6a 00                	push   $0x0
  100bea:	6a 21                	push   $0x21
  100bec:	eb 62                	jmp    100c50 <irq_common_stub>

00100bee <_irq2>:
  100bee:	fa                   	cli    
  100bef:	6a 00                	push   $0x0
  100bf1:	6a 22                	push   $0x22
  100bf3:	eb 5b                	jmp    100c50 <irq_common_stub>

00100bf5 <_irq3>:
  100bf5:	fa                   	cli    
  100bf6:	6a 00                	push   $0x0
  100bf8:	6a 23                	push   $0x23
  100bfa:	eb 54                	jmp    100c50 <irq_common_stub>

00100bfc <_irq4>:
  100bfc:	fa                   	cli    
  100bfd:	6a 00                	push   $0x0
  100bff:	6a 24                	push   $0x24
  100c01:	eb 4d                	jmp    100c50 <irq_common_stub>

00100c03 <_irq5>:
  100c03:	fa                   	cli    
  100c04:	6a 00                	push   $0x0
  100c06:	6a 25                	push   $0x25
  100c08:	eb 46                	jmp    100c50 <irq_common_stub>

00100c0a <_irq6>:
  100c0a:	fa                   	cli    
  100c0b:	6a 00                	push   $0x0
  100c0d:	6a 26                	push   $0x26
  100c0f:	eb 3f                	jmp    100c50 <irq_common_stub>

00100c11 <_irq7>:
  100c11:	fa                   	cli    
  100c12:	6a 00                	push   $0x0
  100c14:	6a 27                	push   $0x27
  100c16:	eb 38                	jmp    100c50 <irq_common_stub>

00100c18 <_irq8>:
  100c18:	fa                   	cli    
  100c19:	6a 00                	push   $0x0
  100c1b:	6a 28                	push   $0x28
  100c1d:	eb 31                	jmp    100c50 <irq_common_stub>

00100c1f <_irq9>:
  100c1f:	fa                   	cli    
  100c20:	6a 00                	push   $0x0
  100c22:	6a 29                	push   $0x29
  100c24:	eb 2a                	jmp    100c50 <irq_common_stub>

00100c26 <_irq10>:
  100c26:	fa                   	cli    
  100c27:	6a 00                	push   $0x0
  100c29:	6a 2a                	push   $0x2a
  100c2b:	eb 23                	jmp    100c50 <irq_common_stub>

00100c2d <_irq11>:
  100c2d:	fa                   	cli    
  100c2e:	6a 00                	push   $0x0
  100c30:	6a 2b                	push   $0x2b
  100c32:	eb 1c                	jmp    100c50 <irq_common_stub>

00100c34 <_irq12>:
  100c34:	fa                   	cli    
  100c35:	6a 00                	push   $0x0
  100c37:	6a 2c                	push   $0x2c
  100c39:	eb 15                	jmp    100c50 <irq_common_stub>

00100c3b <_irq13>:
  100c3b:	fa                   	cli    
  100c3c:	6a 00                	push   $0x0
  100c3e:	6a 2d                	push   $0x2d
  100c40:	eb 0e                	jmp    100c50 <irq_common_stub>

00100c42 <_irq14>:
  100c42:	fa                   	cli    
  100c43:	6a 00                	push   $0x0
  100c45:	6a 2e                	push   $0x2e
  100c47:	eb 07                	jmp    100c50 <irq_common_stub>

00100c49 <_irq15>:
  100c49:	fa                   	cli    
  100c4a:	6a 00                	push   $0x0
  100c4c:	6a 2f                	push   $0x2f
  100c4e:	eb 00                	jmp    100c50 <irq_common_stub>

00100c50 <irq_common_stub>:
  100c50:	60                   	pusha  
  100c51:	1e                   	push   %ds
  100c52:	06                   	push   %es
  100c53:	0f a0                	push   %fs
  100c55:	0f a8                	push   %gs
  100c57:	66 b8 10 00          	mov    $0x10,%ax
  100c5b:	8e d8                	mov    %eax,%ds
  100c5d:	8e c0                	mov    %eax,%es
  100c5f:	8e e0                	mov    %eax,%fs
  100c61:	8e e8                	mov    %eax,%gs
  100c63:	89 e0                	mov    %esp,%eax
  100c65:	50                   	push   %eax
  100c66:	b8 5b 0b 10 00       	mov    $0x100b5b,%eax
  100c6b:	ff d0                	call   *%eax
  100c6d:	58                   	pop    %eax
  100c6e:	0f a9                	pop    %gs
  100c70:	0f a1                	pop    %fs
  100c72:	07                   	pop    %es
  100c73:	1f                   	pop    %ds
  100c74:	61                   	popa   
  100c75:	83 c4 08             	add    $0x8,%esp
  100c78:	cf                   	iret   

00100c79 <outb>:
  100c79:	55                   	push   %ebp
  100c7a:	89 e5                	mov    %esp,%ebp
  100c7c:	8b 45 0c             	mov    0xc(%ebp),%eax
  100c7f:	8b 55 08             	mov    0x8(%ebp),%edx
  100c82:	ee                   	out    %al,(%dx)
  100c83:	5d                   	pop    %ebp
  100c84:	c3                   	ret    

00100c85 <inb>:
  100c85:	55                   	push   %ebp
  100c86:	89 e5                	mov    %esp,%ebp
  100c88:	8b 55 08             	mov    0x8(%ebp),%edx
  100c8b:	ec                   	in     (%dx),%al
  100c8c:	5d                   	pop    %ebp
  100c8d:	c3                   	ret    

00100c8e <timer_handler>:
  100c8e:	a1 e0 1a 11 00       	mov    0x111ae0,%eax
  100c93:	31 d2                	xor    %edx,%edx
  100c95:	b9 12 00 00 00       	mov    $0x12,%ecx
  100c9a:	40                   	inc    %eax
  100c9b:	a3 e0 1a 11 00       	mov    %eax,0x111ae0
  100ca0:	f7 f1                	div    %ecx
  100ca2:	85 d2                	test   %edx,%edx
  100ca4:	75 14                	jne    100cba <timer_handler+0x2c>
  100ca6:	55                   	push   %ebp
  100ca7:	89 e5                	mov    %esp,%ebp
  100ca9:	83 ec 14             	sub    $0x14,%esp
  100cac:	68 1a 13 10 00       	push   $0x10131a
  100cb1:	e8 27 02 00 00       	call   100edd <monitor_write>
  100cb6:	83 c4 10             	add    $0x10,%esp
  100cb9:	c9                   	leave  
  100cba:	c3                   	ret    

00100cbb <timer_phase>:
  100cbb:	55                   	push   %ebp
  100cbc:	b8 dc 34 12 00       	mov    $0x1234dc,%eax
  100cc1:	99                   	cltd   
  100cc2:	89 e5                	mov    %esp,%ebp
  100cc4:	53                   	push   %ebx
  100cc5:	83 ec 0c             	sub    $0xc,%esp
  100cc8:	f7 7d 08             	idivl  0x8(%ebp)
  100ccb:	6a 36                	push   $0x36
  100ccd:	6a 43                	push   $0x43
  100ccf:	89 c3                	mov    %eax,%ebx
  100cd1:	e8 a3 ff ff ff       	call   100c79 <outb>
  100cd6:	58                   	pop    %eax
  100cd7:	5a                   	pop    %edx
  100cd8:	0f b6 c3             	movzbl %bl,%eax
  100cdb:	0f b6 df             	movzbl %bh,%ebx
  100cde:	50                   	push   %eax
  100cdf:	6a 40                	push   $0x40
  100ce1:	e8 93 ff ff ff       	call   100c79 <outb>
  100ce6:	59                   	pop    %ecx
  100ce7:	58                   	pop    %eax
  100ce8:	53                   	push   %ebx
  100ce9:	6a 40                	push   $0x40
  100ceb:	e8 89 ff ff ff       	call   100c79 <outb>
  100cf0:	83 c4 10             	add    $0x10,%esp
  100cf3:	8b 5d fc             	mov    -0x4(%ebp),%ebx
  100cf6:	c9                   	leave  
  100cf7:	c3                   	ret    

00100cf8 <timer_install>:
  100cf8:	55                   	push   %ebp
  100cf9:	89 e5                	mov    %esp,%ebp
  100cfb:	83 ec 10             	sub    $0x10,%esp
  100cfe:	68 8e 0c 10 00       	push   $0x100c8e
  100d03:	6a 00                	push   $0x0
  100d05:	e8 51 fc ff ff       	call   10095b <irq_install_handler>
  100d0a:	83 c4 10             	add    $0x10,%esp
  100d0d:	c9                   	leave  
  100d0e:	c3                   	ret    

00100d0f <timer_wait>:
  100d0f:	55                   	push   %ebp
  100d10:	a1 e0 1a 11 00       	mov    0x111ae0,%eax
  100d15:	89 e5                	mov    %esp,%ebp
  100d17:	8b 55 08             	mov    0x8(%ebp),%edx
  100d1a:	01 c2                	add    %eax,%edx
  100d1c:	39 d0                	cmp    %edx,%eax
  100d1e:	72 fc                	jb     100d1c <timer_wait+0xd>
  100d20:	5d                   	pop    %ebp
  100d21:	c3                   	ret    

00100d22 <keyboard_handler>:
  100d22:	55                   	push   %ebp
  100d23:	89 e5                	mov    %esp,%ebp
  100d25:	53                   	push   %ebx
  100d26:	83 ec 10             	sub    $0x10,%esp
  100d29:	6a 60                	push   $0x60
  100d2b:	e8 55 ff ff ff       	call   100c85 <inb>
  100d30:	0f b6 d8             	movzbl %al,%ebx
  100d33:	83 c4 10             	add    $0x10,%esp
  100d36:	84 db                	test   %bl,%bl
  100d38:	79 0a                	jns    100d44 <keyboard_handler+0x22>
  100d3a:	83 ec 0c             	sub    $0xc,%esp
  100d3d:	68 31 13 10 00       	push   $0x101331
  100d42:	eb 16                	jmp    100d5a <keyboard_handler+0x38>
  100d44:	83 ec 0c             	sub    $0xc,%esp
  100d47:	81 c3 40 10 10 00    	add    $0x101040,%ebx
  100d4d:	68 3a 13 10 00       	push   $0x10133a
  100d52:	e8 86 01 00 00       	call   100edd <monitor_write>
  100d57:	89 1c 24             	mov    %ebx,(%esp)
  100d5a:	e8 7e 01 00 00       	call   100edd <monitor_write>
  100d5f:	83 c4 10             	add    $0x10,%esp
  100d62:	8b 5d fc             	mov    -0x4(%ebp),%ebx
  100d65:	c9                   	leave  
  100d66:	c3                   	ret    

00100d67 <keyboard_install>:
  100d67:	55                   	push   %ebp
  100d68:	89 e5                	mov    %esp,%ebp
  100d6a:	83 ec 10             	sub    $0x10,%esp
  100d6d:	68 22 0d 10 00       	push   $0x100d22
  100d72:	6a 01                	push   $0x1
  100d74:	e8 e2 fb ff ff       	call   10095b <irq_install_handler>
  100d79:	83 c4 10             	add    $0x10,%esp
  100d7c:	c9                   	leave  
  100d7d:	c3                   	ret    

00100d7e <move_cursor>:
  100d7e:	55                   	push   %ebp
  100d7f:	89 e5                	mov    %esp,%ebp
  100d81:	53                   	push   %ebx
  100d82:	83 ec 0c             	sub    $0xc,%esp
  100d85:	0f b6 1d e4 1a 11 00 	movzbl 0x111ae4,%ebx
  100d8c:	0f b6 05 e5 1a 11 00 	movzbl 0x111ae5,%eax
  100d93:	6a 0e                	push   $0xe
  100d95:	68 d4 03 00 00       	push   $0x3d4
  100d9a:	8d 1c 9b             	lea    (%ebx,%ebx,4),%ebx
  100d9d:	c1 e3 04             	shl    $0x4,%ebx
  100da0:	01 c3                	add    %eax,%ebx
  100da2:	e8 d2 fe ff ff       	call   100c79 <outb>
  100da7:	58                   	pop    %eax
  100da8:	5a                   	pop    %edx
  100da9:	0f b6 c7             	movzbl %bh,%eax
  100dac:	0f b6 db             	movzbl %bl,%ebx
  100daf:	50                   	push   %eax
  100db0:	68 d5 03 00 00       	push   $0x3d5
  100db5:	e8 bf fe ff ff       	call   100c79 <outb>
  100dba:	59                   	pop    %ecx
  100dbb:	58                   	pop    %eax
  100dbc:	6a 0f                	push   $0xf
  100dbe:	68 d4 03 00 00       	push   $0x3d4
  100dc3:	e8 b1 fe ff ff       	call   100c79 <outb>
  100dc8:	58                   	pop    %eax
  100dc9:	5a                   	pop    %edx
  100dca:	53                   	push   %ebx
  100dcb:	68 d5 03 00 00       	push   $0x3d5
  100dd0:	e8 a4 fe ff ff       	call   100c79 <outb>
  100dd5:	83 c4 10             	add    $0x10,%esp
  100dd8:	8b 5d fc             	mov    -0x4(%ebp),%ebx
  100ddb:	c9                   	leave  
  100ddc:	c3                   	ret    

00100ddd <monitor_put>:
  100ddd:	55                   	push   %ebp
  100dde:	89 e5                	mov    %esp,%ebp
  100de0:	53                   	push   %ebx
  100de1:	8b 45 08             	mov    0x8(%ebp),%eax
  100de4:	3c 08                	cmp    $0x8,%al
  100de6:	75 0c                	jne    100df4 <monitor_put+0x17>
  100de8:	a0 e5 1a 11 00       	mov    0x111ae5,%al
  100ded:	84 c0                	test   %al,%al
  100def:	74 68                	je     100e59 <monitor_put+0x7c>
  100df1:	48                   	dec    %eax
  100df2:	eb 0f                	jmp    100e03 <monitor_put+0x26>
  100df4:	3c 09                	cmp    $0x9,%al
  100df6:	75 12                	jne    100e0a <monitor_put+0x2d>
  100df8:	a0 e5 1a 11 00       	mov    0x111ae5,%al
  100dfd:	83 c0 08             	add    $0x8,%eax
  100e00:	83 e0 f8             	and    $0xfffffff8,%eax
  100e03:	a2 e5 1a 11 00       	mov    %al,0x111ae5
  100e08:	eb 4f                	jmp    100e59 <monitor_put+0x7c>
  100e0a:	3c 0d                	cmp    $0xd,%al
  100e0c:	75 09                	jne    100e17 <monitor_put+0x3a>
  100e0e:	c6 05 e5 1a 11 00 00 	movb   $0x0,0x111ae5
  100e15:	eb 42                	jmp    100e59 <monitor_put+0x7c>
  100e17:	3c 0a                	cmp    $0xa,%al
  100e19:	75 0f                	jne    100e2a <monitor_put+0x4d>
  100e1b:	c6 05 e5 1a 11 00 00 	movb   $0x0,0x111ae5
  100e22:	fe 05 e4 1a 11 00    	incb   0x111ae4
  100e28:	eb 2f                	jmp    100e59 <monitor_put+0x7c>
  100e2a:	3c 1f                	cmp    $0x1f,%al
  100e2c:	7e 2b                	jle    100e59 <monitor_put+0x7c>
  100e2e:	0f b6 0d e4 1a 11 00 	movzbl 0x111ae4,%ecx
  100e35:	0f b6 1d e5 1a 11 00 	movzbl 0x111ae5,%ebx
  100e3c:	66 98                	cbtw   
  100e3e:	80 cc 0f             	or     $0xf,%ah
  100e41:	6b c9 50             	imul   $0x50,%ecx,%ecx
  100e44:	89 da                	mov    %ebx,%edx
  100e46:	42                   	inc    %edx
  100e47:	01 d9                	add    %ebx,%ecx
  100e49:	8b 1d 5c 18 10 00    	mov    0x10185c,%ebx
  100e4f:	66 89 04 4b          	mov    %ax,(%ebx,%ecx,2)
  100e53:	88 15 e5 1a 11 00    	mov    %dl,0x111ae5
  100e59:	80 3d e5 1a 11 00 4f 	cmpb   $0x4f,0x111ae5
  100e60:	76 0d                	jbe    100e6f <monitor_put+0x92>
  100e62:	fe 05 e4 1a 11 00    	incb   0x111ae4
  100e68:	c6 05 e5 1a 11 00 00 	movb   $0x0,0x111ae5
  100e6f:	80 3d e4 1a 11 00 18 	cmpb   $0x18,0x111ae4
  100e76:	76 31                	jbe    100ea9 <monitor_put+0xcc>
  100e78:	8b 15 5c 18 10 00    	mov    0x10185c,%edx
  100e7e:	31 c0                	xor    %eax,%eax
  100e80:	66 8b 8c 42 a0 00 00 	mov    0xa0(%edx,%eax,2),%cx
  100e87:	00 
  100e88:	66 89 0c 42          	mov    %cx,(%edx,%eax,2)
  100e8c:	40                   	inc    %eax
  100e8d:	3d 80 07 00 00       	cmp    $0x780,%eax
  100e92:	75 ec                	jne    100e80 <monitor_put+0xa3>
  100e94:	66 c7 04 42 20 0f    	movw   $0xf20,(%edx,%eax,2)
  100e9a:	40                   	inc    %eax
  100e9b:	3d d0 07 00 00       	cmp    $0x7d0,%eax
  100ea0:	75 f2                	jne    100e94 <monitor_put+0xb7>
  100ea2:	c6 05 e4 1a 11 00 18 	movb   $0x18,0x111ae4
  100ea9:	5b                   	pop    %ebx
  100eaa:	5d                   	pop    %ebp
  100eab:	e9 ce fe ff ff       	jmp    100d7e <move_cursor>

00100eb0 <monitor_clear>:
  100eb0:	55                   	push   %ebp
  100eb1:	8b 15 5c 18 10 00    	mov    0x10185c,%edx
  100eb7:	31 c0                	xor    %eax,%eax
  100eb9:	89 e5                	mov    %esp,%ebp
  100ebb:	66 c7 04 42 20 0f    	movw   $0xf20,(%edx,%eax,2)
  100ec1:	40                   	inc    %eax
  100ec2:	3d d0 07 00 00       	cmp    $0x7d0,%eax
  100ec7:	75 f2                	jne    100ebb <monitor_clear+0xb>
  100ec9:	5d                   	pop    %ebp
  100eca:	c6 05 e5 1a 11 00 00 	movb   $0x0,0x111ae5
  100ed1:	c6 05 e4 1a 11 00 00 	movb   $0x0,0x111ae4
  100ed8:	e9 a1 fe ff ff       	jmp    100d7e <move_cursor>

00100edd <monitor_write>:
  100edd:	55                   	push   %ebp
  100ede:	89 e5                	mov    %esp,%ebp
  100ee0:	53                   	push   %ebx
  100ee1:	50                   	push   %eax
  100ee2:	8b 5d 08             	mov    0x8(%ebp),%ebx
  100ee5:	43                   	inc    %ebx
  100ee6:	0f be 43 ff          	movsbl -0x1(%ebx),%eax
  100eea:	84 c0                	test   %al,%al
  100eec:	74 0e                	je     100efc <monitor_write+0x1f>
  100eee:	83 ec 0c             	sub    $0xc,%esp
  100ef1:	50                   	push   %eax
  100ef2:	e8 e6 fe ff ff       	call   100ddd <monitor_put>
  100ef7:	83 c4 10             	add    $0x10,%esp
  100efa:	eb e9                	jmp    100ee5 <monitor_write+0x8>
  100efc:	8b 5d fc             	mov    -0x4(%ebp),%ebx
  100eff:	c9                   	leave  
  100f00:	c3                   	ret    

00100f01 <monitor_write_hex>:
  100f01:	55                   	push   %ebp
  100f02:	89 e5                	mov    %esp,%ebp
  100f04:	56                   	push   %esi
  100f05:	53                   	push   %ebx
  100f06:	be 1c 00 00 00       	mov    $0x1c,%esi
  100f0b:	8b 5d 08             	mov    0x8(%ebp),%ebx
  100f0e:	83 ec 0c             	sub    $0xc,%esp
  100f11:	68 47 13 10 00       	push   $0x101347
  100f16:	e8 c2 ff ff ff       	call   100edd <monitor_write>
  100f1b:	83 c4 10             	add    $0x10,%esp
  100f1e:	b2 01                	mov    $0x1,%dl
  100f20:	89 d8                	mov    %ebx,%eax
  100f22:	89 f1                	mov    %esi,%ecx
  100f24:	d3 e8                	shr    %cl,%eax
  100f26:	83 e0 0f             	and    $0xf,%eax
  100f29:	75 0b                	jne    100f36 <monitor_write_hex+0x35>
  100f2b:	88 d1                	mov    %dl,%cl
  100f2d:	b2 01                	mov    $0x1,%dl
  100f2f:	83 e1 01             	and    $0x1,%ecx
  100f32:	84 c9                	test   %cl,%cl
  100f34:	75 21                	jne    100f57 <monitor_write_hex+0x56>
  100f36:	83 f8 09             	cmp    $0x9,%eax
  100f39:	7e 0b                	jle    100f46 <monitor_write_hex+0x45>
  100f3b:	83 c0 57             	add    $0x57,%eax
  100f3e:	83 ec 0c             	sub    $0xc,%esp
  100f41:	0f b6 c0             	movzbl %al,%eax
  100f44:	eb 06                	jmp    100f4c <monitor_write_hex+0x4b>
  100f46:	83 ec 0c             	sub    $0xc,%esp
  100f49:	83 c0 30             	add    $0x30,%eax
  100f4c:	50                   	push   %eax
  100f4d:	e8 8b fe ff ff       	call   100ddd <monitor_put>
  100f52:	83 c4 10             	add    $0x10,%esp
  100f55:	31 d2                	xor    %edx,%edx
  100f57:	83 ee 04             	sub    $0x4,%esi
  100f5a:	75 c4                	jne    100f20 <monitor_write_hex+0x1f>
  100f5c:	89 d8                	mov    %ebx,%eax
  100f5e:	83 e0 0f             	and    $0xf,%eax
  100f61:	83 f8 09             	cmp    $0x9,%eax
  100f64:	7e 08                	jle    100f6e <monitor_write_hex+0x6d>
  100f66:	83 c0 57             	add    $0x57,%eax
  100f69:	0f b6 c0             	movzbl %al,%eax
  100f6c:	eb 03                	jmp    100f71 <monitor_write_hex+0x70>
  100f6e:	83 c0 30             	add    $0x30,%eax
  100f71:	89 45 08             	mov    %eax,0x8(%ebp)
  100f74:	8d 65 f8             	lea    -0x8(%ebp),%esp
  100f77:	5b                   	pop    %ebx
  100f78:	5e                   	pop    %esi
  100f79:	5d                   	pop    %ebp
  100f7a:	e9 5e fe ff ff       	jmp    100ddd <monitor_put>

00100f7f <monitor_write_dec>:
  100f7f:	55                   	push   %ebp
  100f80:	89 e5                	mov    %esp,%ebp
  100f82:	57                   	push   %edi
  100f83:	56                   	push   %esi
  100f84:	53                   	push   %ebx
  100f85:	83 ec 4c             	sub    $0x4c,%esp
  100f88:	8b 45 08             	mov    0x8(%ebp),%eax
  100f8b:	85 c0                	test   %eax,%eax
  100f8d:	75 0c                	jne    100f9b <monitor_write_dec+0x1c>
  100f8f:	83 ec 0c             	sub    $0xc,%esp
  100f92:	6a 30                	push   $0x30
  100f94:	e8 44 fe ff ff       	call   100ddd <monitor_put>
  100f99:	eb 45                	jmp    100fe0 <monitor_write_dec+0x61>
  100f9b:	31 c9                	xor    %ecx,%ecx
  100f9d:	bb 0a 00 00 00       	mov    $0xa,%ebx
  100fa2:	85 c0                	test   %eax,%eax
  100fa4:	7e 0d                	jle    100fb3 <monitor_write_dec+0x34>
  100fa6:	99                   	cltd   
  100fa7:	f7 fb                	idiv   %ebx
  100fa9:	83 c2 30             	add    $0x30,%edx
  100fac:	88 54 0d a8          	mov    %dl,-0x58(%ebp,%ecx,1)
  100fb0:	41                   	inc    %ecx
  100fb1:	eb ef                	jmp    100fa2 <monitor_write_dec+0x23>
  100fb3:	8d 55 c8             	lea    -0x38(%ebp),%edx
  100fb6:	c6 44 0d a8 00       	movb   $0x0,-0x58(%ebp,%ecx,1)
  100fbb:	c6 44 0d c8 00       	movb   $0x0,-0x38(%ebp,%ecx,1)
  100fc0:	31 c0                	xor    %eax,%eax
  100fc2:	8d 34 0a             	lea    (%edx,%ecx,1),%esi
  100fc5:	39 c1                	cmp    %eax,%ecx
  100fc7:	74 0e                	je     100fd7 <monitor_write_dec+0x58>
  100fc9:	40                   	inc    %eax
  100fca:	8a 5c 05 a7          	mov    -0x59(%ebp,%eax,1),%bl
  100fce:	89 c7                	mov    %eax,%edi
  100fd0:	f7 df                	neg    %edi
  100fd2:	88 1c 3e             	mov    %bl,(%esi,%edi,1)
  100fd5:	eb ee                	jmp    100fc5 <monitor_write_dec+0x46>
  100fd7:	83 ec 0c             	sub    $0xc,%esp
  100fda:	52                   	push   %edx
  100fdb:	e8 fd fe ff ff       	call   100edd <monitor_write>
  100fe0:	83 c4 10             	add    $0x10,%esp
  100fe3:	8d 65 f4             	lea    -0xc(%ebp),%esp
  100fe6:	5b                   	pop    %ebx
  100fe7:	5e                   	pop    %esi
  100fe8:	5f                   	pop    %edi
  100fe9:	5d                   	pop    %ebp
  100fea:	c3                   	ret    

00100feb <memset>:
  100feb:	55                   	push   %ebp
  100fec:	31 d2                	xor    %edx,%edx
  100fee:	89 e5                	mov    %esp,%ebp
  100ff0:	8b 45 08             	mov    0x8(%ebp),%eax
  100ff3:	8b 4d 0c             	mov    0xc(%ebp),%ecx
  100ff6:	3b 55 10             	cmp    0x10(%ebp),%edx
  100ff9:	74 06                	je     101001 <memset+0x16>
  100ffb:	88 0c 10             	mov    %cl,(%eax,%edx,1)
  100ffe:	42                   	inc    %edx
  100fff:	eb f5                	jmp    100ff6 <memset+0xb>
  101001:	5d                   	pop    %ebp
  101002:	c3                   	ret    
